(dp1
S'allow_his_tag'
p2
I00
sS'bbcontacts_file'
p3
NsS'shelxe_rebuild_arpwarp'
p4
I00
sS'nmr_remodel_fasta'
p5
NsS'transmembrane'
p6
I00
sS'restart_pkl'
p7
NsS'mr_keys'
p8
NsS'subcluster_radius_thresholds'
p9
(lp10
I1
aI3
asS'phenix_exe'
p11
NsS'phaser_rms'
p12
F0.10000000000000001
sS'tmscore_exe'
p13
NsS'ccp4_jobid'
p14
NsS'native_mtz'
p15
NsS'native_pdb'
p16
NsS'domain_termini_distance'
p17
I0
sS'models_dir'
p18
S'/opt/ample.git/testfiles/models'
p19
sS'submit_max_array'
p20
NsS'AMPLE_finished'
p21
I01
sS'disulfide_constraints_file'
p22
NsS'mtz_max_resolution'
p23
F36.764999389648438
sS'no_gui'
p24
I00
sS'import_ensembles'
p25
I00
sS'rcdir'
p26
S'/home/jmht/.ample'
p27
sS'ample_log'
p28
S'/opt/ample.git/examples/toxd-example/AMPLE_0/AMPLE.log'
p29
sS'ROSETTA_cluster'
p30
NsS'phaser_kill'
p31
I360
sS'SIGF'
p32
S'SIGFP'
p33
sS'truncation_scorefile_header'
p34
NsS'benchmark_mode'
p35
I00
sS'make_frags'
p36
I00
sS'quick_mode'
p37
I00
sS'cluster_method'
p38
S'spicker'
p39
sS'import_cluster'
p40
I00
sS'improve_template'
p41
NsS'theseus_exe'
p42
S'/opt/ccp4/ccp4-7.0/bin/theseus'
p43
sS'fast_protein_cluster_exe'
p44
NsS'num_clusters'
p45
I10
sS'rosetta_fragments_exe'
p46
NsS'name'
p47
S'ampl_'
p48
sS'single_model'
p49
NsS'ensemble_options'
p50
NsS'truncation_pruning'
p51
NsS'submit_qtype'
p52
NsS'make_ensembles'
p53
I01
sS'single_model_mode'
p54
I00
sS'debug'
p55
I00
sS'do_mr'
p56
I01
sS'use_arpwarp'
p57
I00
sS'mrbump_scripts'
p58
(lp59
S'/opt/ample.git/examples/toxd-example/AMPLE_0/MRBUMP/c1_t24_r1_polyAla.sh'
p60
aS'/opt/ample.git/examples/toxd-example/AMPLE_0/MRBUMP/c1_t29_r1_polyAla.sh'
p61
aS'/opt/ample.git/examples/toxd-example/AMPLE_0/MRBUMP/c1_t34_r1_polyAla.sh'
p62
aS'/opt/ample.git/examples/toxd-example/AMPLE_0/MRBUMP/c1_t39_r1_polyAla.sh'
p63
aS'/opt/ample.git/examples/toxd-example/AMPLE_0/MRBUMP/c1_t39_r3_polyAla.sh'
p64
aS'/opt/ample.git/examples/toxd-example/AMPLE_0/MRBUMP/c1_t44_r1_polyAla.sh'
p65
aS'/opt/ample.git/examples/toxd-example/AMPLE_0/MRBUMP/c1_t44_r3_polyAla.sh'
p66
aS'/opt/ample.git/examples/toxd-example/AMPLE_0/MRBUMP/c1_t49_r1_polyAla.sh'
p67
aS'/opt/ample.git/examples/toxd-example/AMPLE_0/MRBUMP/c1_t49_r3_polyAla.sh'
p68
aS'/opt/ample.git/examples/toxd-example/AMPLE_0/MRBUMP/c1_t8_r1_polyAla.sh'
p69
aS'/opt/ample.git/examples/toxd-example/AMPLE_0/MRBUMP/c1_t14_r1_polyAla.sh'
p70
aS'/opt/ample.git/examples/toxd-example/AMPLE_0/MRBUMP/c1_t19_r1_polyAla.sh'
p71
aS'/opt/ample.git/examples/toxd-example/AMPLE_0/MRBUMP/c1_t54_r1_polyAla.sh'
p72
aS'/opt/ample.git/examples/toxd-example/AMPLE_0/MRBUMP/c1_t54_r3_polyAla.sh'
p73
aS'/opt/ample.git/examples/toxd-example/AMPLE_0/MRBUMP/c1_t59_r1_polyAla.sh'
p74
aS'/opt/ample.git/examples/toxd-example/AMPLE_0/MRBUMP/c1_t59_r3_polyAla.sh'
p75
aS'/opt/ample.git/examples/toxd-example/AMPLE_0/MRBUMP/c1_t64_r1_polyAla.sh'
p76
aS'/opt/ample.git/examples/toxd-example/AMPLE_0/MRBUMP/c1_t64_r3_polyAla.sh'
p77
aS'/opt/ample.git/examples/toxd-example/AMPLE_0/MRBUMP/c1_t69_r1_polyAla.sh'
p78
aS'/opt/ample.git/examples/toxd-example/AMPLE_0/MRBUMP/c1_t69_r3_polyAla.sh'
p79
aS'/opt/ample.git/examples/toxd-example/AMPLE_0/MRBUMP/c1_t75_r1_polyAla.sh'
p80
aS'/opt/ample.git/examples/toxd-example/AMPLE_0/MRBUMP/c1_t75_r3_polyAla.sh'
p81
aS'/opt/ample.git/examples/toxd-example/AMPLE_0/MRBUMP/c1_t80_r1_polyAla.sh'
p82
aS'/opt/ample.git/examples/toxd-example/AMPLE_0/MRBUMP/c1_t80_r3_polyAla.sh'
p83
aS'/opt/ample.git/examples/toxd-example/AMPLE_0/MRBUMP/c1_t85_r1_polyAla.sh'
p84
aS'/opt/ample.git/examples/toxd-example/AMPLE_0/MRBUMP/c1_t85_r3_polyAla.sh'
p85
aS'/opt/ample.git/examples/toxd-example/AMPLE_0/MRBUMP/c1_t90_r1_polyAla.sh'
p86
aS'/opt/ample.git/examples/toxd-example/AMPLE_0/MRBUMP/c1_t90_r3_polyAla.sh'
p87
aS'/opt/ample.git/examples/toxd-example/AMPLE_0/MRBUMP/c1_t95_r3_polyAla.sh'
p88
aS'/opt/ample.git/examples/toxd-example/AMPLE_0/MRBUMP/c1_t100_r3_polyAla.sh'
p89
asS'nmodels'
p90
I1000
sS'make_models'
p91
I00
sS'sequence'
p92
S'QPRRKLCILHRNPGRCYDKIPAFYYNQKKKQCERFDWSGCGGNSNRFKTIEECRRTCIG'
p93
sS'truncation_method'
p94
S'percent'
p95
sS'contact_format'
p96
NsS'phaser_only'
p97
I01
sS'ideal_helices'
p98
I00
sS'score_matrix'
p99
NsS'spicker_exe'
p100
S'/opt/ccp4/ccp4-7.0/bin/spicker'
p101
sS'energy_function'
p102
S'FADE'
p103
sS'mr_sequence'
p104
S'/opt/ample.git/examples/toxd-example/input/toxd_.fasta'
p105
sS'restraints_weight'
p106
F1
sS'nmasu'
p107
I0
sS'classic_mode'
p108
I00
sS'cluster_dir'
p109
NsS'lsqkab_exe'
p110
NsS'use_homs'
p111
I01
sS'submit_pe_lsf'
p112
NsS'scwrl_exe'
p113
S'Scwrl4'
p114
sS'shelxe_rebuild'
p115
I00
sS'have_tmscore'
p116
I01
sS'import_models'
p117
I01
sS'blast_dir'
p118
NsS'transmembrane_spanfile'
p119
NsS'nmr_process'
p120
NsS'mrbump_programs'
p121
(lp122
S'phaser'
p123
asS'sf_cif'
p124
NsS'truncation_scorefile'
p125
NsS'output_pdb'
p126
S'ample_output.pdb'
p127
sS'truncation_nresidues'
p128
(lp129
I59
aI56
aI53
aI50
aI47
aI44
aI41
aI38
aI35
aI32
aI29
aI26
aI23
aI20
aI17
aI14
aI11
aI8
aI5
asS'ensembles'
p130
(lp131
S'/opt/ample.git/examples/toxd-example/AMPLE_0/ensembles/c1_t100_r3_polyAla.pdb'
p132
aS'/opt/ample.git/examples/toxd-example/AMPLE_0/ensembles/c1_t95_r3_polyAla.pdb'
p133
aS'/opt/ample.git/examples/toxd-example/AMPLE_0/ensembles/c1_t90_r1_polyAla.pdb'
p134
aS'/opt/ample.git/examples/toxd-example/AMPLE_0/ensembles/c1_t90_r3_polyAla.pdb'
p135
aS'/opt/ample.git/examples/toxd-example/AMPLE_0/ensembles/c1_t85_r1_polyAla.pdb'
p136
aS'/opt/ample.git/examples/toxd-example/AMPLE_0/ensembles/c1_t85_r3_polyAla.pdb'
p137
aS'/opt/ample.git/examples/toxd-example/AMPLE_0/ensembles/c1_t80_r1_polyAla.pdb'
p138
aS'/opt/ample.git/examples/toxd-example/AMPLE_0/ensembles/c1_t80_r3_polyAla.pdb'
p139
aS'/opt/ample.git/examples/toxd-example/AMPLE_0/ensembles/c1_t75_r1_polyAla.pdb'
p140
aS'/opt/ample.git/examples/toxd-example/AMPLE_0/ensembles/c1_t75_r3_polyAla.pdb'
p141
aS'/opt/ample.git/examples/toxd-example/AMPLE_0/ensembles/c1_t69_r1_polyAla.pdb'
p142
aS'/opt/ample.git/examples/toxd-example/AMPLE_0/ensembles/c1_t69_r3_polyAla.pdb'
p143
aS'/opt/ample.git/examples/toxd-example/AMPLE_0/ensembles/c1_t64_r1_polyAla.pdb'
p144
aS'/opt/ample.git/examples/toxd-example/AMPLE_0/ensembles/c1_t64_r3_polyAla.pdb'
p145
aS'/opt/ample.git/examples/toxd-example/AMPLE_0/ensembles/c1_t59_r1_polyAla.pdb'
p146
aS'/opt/ample.git/examples/toxd-example/AMPLE_0/ensembles/c1_t59_r3_polyAla.pdb'
p147
aS'/opt/ample.git/examples/toxd-example/AMPLE_0/ensembles/c1_t54_r1_polyAla.pdb'
p148
aS'/opt/ample.git/examples/toxd-example/AMPLE_0/ensembles/c1_t54_r3_polyAla.pdb'
p149
aS'/opt/ample.git/examples/toxd-example/AMPLE_0/ensembles/c1_t49_r1_polyAla.pdb'
p150
aS'/opt/ample.git/examples/toxd-example/AMPLE_0/ensembles/c1_t49_r3_polyAla.pdb'
p151
aS'/opt/ample.git/examples/toxd-example/AMPLE_0/ensembles/c1_t44_r1_polyAla.pdb'
p152
aS'/opt/ample.git/examples/toxd-example/AMPLE_0/ensembles/c1_t44_r3_polyAla.pdb'
p153
aS'/opt/ample.git/examples/toxd-example/AMPLE_0/ensembles/c1_t39_r1_polyAla.pdb'
p154
aS'/opt/ample.git/examples/toxd-example/AMPLE_0/ensembles/c1_t39_r3_polyAla.pdb'
p155
aS'/opt/ample.git/examples/toxd-example/AMPLE_0/ensembles/c1_t34_r1_polyAla.pdb'
p156
aS'/opt/ample.git/examples/toxd-example/AMPLE_0/ensembles/c1_t29_r1_polyAla.pdb'
p157
aS'/opt/ample.git/examples/toxd-example/AMPLE_0/ensembles/c1_t24_r1_polyAla.pdb'
p158
aS'/opt/ample.git/examples/toxd-example/AMPLE_0/ensembles/c1_t19_r1_polyAla.pdb'
p159
aS'/opt/ample.git/examples/toxd-example/AMPLE_0/ensembles/c1_t14_r1_polyAla.pdb'
p160
aS'/opt/ample.git/examples/toxd-example/AMPLE_0/ensembles/c1_t8_r1_polyAla.pdb'
p161
asS'run_dir'
p162
S'/opt/ample.git/examples/toxd-example'
p163
sS'success'
p164
I01
sS'mr_sg_all'
p165
NsS'ensembles_directory'
p166
S'/opt/ample.git/examples/toxd-example/AMPLE_0/ensembles'
p167
sS'homologs'
p168
I00
sS'frags_9mers'
p169
NsS'transmembrane_octopusfile'
p170
NsS'thin_clusters'
p171
NsS'restraints_format'
p172
S'rosetta'
p173
sS'rosetta_version'
p174
NsS'use_shelxe'
p175
I01
sS'submit_array'
p176
I01
sS'arpwarp_cycles'
p177
I10
sS'top_model_only'
p178
I00
sS'score_matrix_file_list'
p179
NsS'mtz_min_resolution'
p180
F2.2005136170030171
sS'transmembrane_lipofile'
p181
NsS'transmembrane2'
p182
I00
sS'truncation_levels'
p183
(lp184
I100
aI95
aI90
aI85
aI80
aI75
aI69
aI64
aI59
aI54
aI49
aI44
aI39
aI34
aI29
aI24
aI19
aI14
aI8
asS'work_dir'
p185
S'/opt/ample.git/examples/toxd-example/AMPLE_0'
p186
sS'webserver_uri'
p187
NsS'submit_pe_sge'
p188
S'mpi'
p189
sS'side_chain_treatments'
p190
(lp191
S'polyAla'
p192
asS'restraints_file'
p193
NsS'submit_queue'
p194
NsS'alignment_file'
p195
NsS'use_buccaneer'
p196
I01
sS'out_config_file'
p197
S'/opt/ample.git/examples/toxd-example/AMPLE_0/ampl_.ini'
p198
sS'shelxe_rebuild_buccaneer'
p199
I00
sS'native_cutoff'
p200
I8
sS'mrbump_results'
p201
(lp202
(dp203
S'BUCC_mtzout'
p204
S'/opt/ample.git/examples/toxd-example/AMPLE_0/MRBUMP/search_c1_t69_r3_polyAla_mrbump/data/loc0_ALL_c1_t69_r3_polyAla/unmod/mr/phaser/build/buccaneer/buccaneer_pipeline/refined.mtz'
p205
sS'SHELXE_logfile'
p206
S'/opt/ample.git/examples/toxd-example/AMPLE_0/MRBUMP/search_c1_t69_r3_polyAla_mrbump/data/loc0_ALL_c1_t69_r3_polyAla/unmod/mr/phaser/build/shelxe/shelxe_run.log'
p207
sS'Solution_Type'
p208
S'MARGINAL'
p209
sS'PHASER_killed'
p210
I00
sS'BUCC_final_Rfact'
p211
F1
sS'PHASER_time'
p212
F51.5
sS'ensemble_name'
p213
S'c1_t69_r3_polyAla'
p214
sS'SHELXE_wMPE'
p215
NsS'PHASER_TFZ'
p216
F5.4000000000000004
sS'SHELXE_os'
p217
NsS'PHASER_RFZ'
p218
F4
sS'BUCC_final_Rfree'
p219
F1
sS'MOLREP_score'
p220
NsS'SearchModel_name'
p221
S'loc0_ALL_c1_t69_r3_polyAla_UNMOD'
p222
sS'SXRARP_version'
p223
NsS'ARP_pdbout'
p224
NsS'PHASER_LLG'
p225
F30
sS'BUCC_version'
p226
S'1.6.4'
p227
sS'REFMAC_Rfact'
p228
F0.50029999999999997
sS'SXRBUCC_final_Rfact'
p229
NsS'SXRARP_pdbout'
p230
NsS'PHASER_version'
p231
S'2.7.17'
p232
sS'REFMAC_logfile'
p233
S'/opt/ample.git/examples/toxd-example/AMPLE_0/MRBUMP/search_c1_t69_r3_polyAla_mrbump/data/loc0_ALL_c1_t69_r3_polyAla/unmod/mr/phaser/refine/refmac_phaser_loc0_ALL_c1_t69_r3_polyAla_UNMOD.log'
p234
sS'Search_directory'
p235
S'/opt/ample.git/examples/toxd-example/AMPLE_0/MRBUMP/search_c1_t69_r3_polyAla_mrbump'
p236
sS'SHELXE_pdbout'
p237
S'/opt/ample.git/examples/toxd-example/AMPLE_0/MRBUMP/search_c1_t69_r3_polyAla_mrbump/data/loc0_ALL_c1_t69_r3_polyAla/unmod/mr/phaser/build/shelxe/shelxe_phaser_loc0_ALL_c1_t69_r3_polyAla_UNMOD.pdb'
p238
sS'ARP_logfile'
p239
NsS'MOLREP_logfile'
p240
NsS'REFMAC_version'
p241
S'5.8.0158'
p242
sS'SXRBUCC_mtzout'
p243
NsS'SHELXE_NC'
p244
I2
sS'SXRBUCC_logfile'
p245
NsS'STATUS'
p246
S'Finished'
p247
sS'ARP_version'
p248
NsS'SHELXE_MCL'
p249
I40
sS'SXRARP_logfile'
p250
NsS'SHELXE_ACL'
p251
I26
sS'REFMAC_Rfree'
p252
F0.47420000000000001
sS'MOLREP_pdbout'
p253
NsS'MOLREP_version'
p254
NsS'SHELXE_time'
p255
F684.64999999999998
sS'REFMAC_pdbout'
p256
S'/opt/ample.git/examples/toxd-example/AMPLE_0/MRBUMP/search_c1_t69_r3_polyAla_mrbump/data/loc0_ALL_c1_t69_r3_polyAla/unmod/mr/phaser/refine/refmac_phaser_loc0_ALL_c1_t69_r3_polyAla_UNMOD.pdb'
p257
sS'SXRBUCC_pdbout'
p258
NsS'SHELXE_CC'
p259
F39.990000000000002
sS'SXRARP_final_Rfact'
p260
NsS'SXRBUCC_version'
p261
NsS'MOLREP_time'
p262
NsS'PHASER_logfile'
p263
S'/opt/ample.git/examples/toxd-example/AMPLE_0/MRBUMP/search_c1_t69_r3_polyAla_mrbump/data/loc0_ALL_c1_t69_r3_polyAla/unmod/mr/phaser/phaser_loc0_ALL_c1_t69_r3_polyAla_UNMOD.log'
p264
sS'name'
p265
S'loc0_ALL_c1_t69_r3_polyAla_UNMOD'
p266
sS'BUCC_logfile'
p267
S'/opt/ample.git/examples/toxd-example/AMPLE_0/MRBUMP/search_c1_t69_r3_polyAla_mrbump/data/loc0_ALL_c1_t69_r3_polyAla/unmod/mr/phaser/build/buccaneer/buccaneer_run.log'
p268
sS'PHASER_mtzout'
p269
S'/opt/ample.git/examples/toxd-example/AMPLE_0/MRBUMP/search_c1_t69_r3_polyAla_mrbump/data/loc0_ALL_c1_t69_r3_polyAla/unmod/mr/phaser/phaser_loc0_ALL_c1_t69_r3_polyAla_UNMOD.1.mtz'
p270
sS'ARP_final_Rfact'
p271
NsS'SXRARP_mtzout'
p272
NsS'ARP_final_Rfree'
p273
NsS'PHASER_error'
p274
NsS'SXRBUCC_final_Rfree'
p275
NsS'ARP_mtzout'
p276
NsS'SHELXE_version'
p277
S'2016/3'
p278
sS'MR_program'
p279
S'PHASER'
p280
sS'PHASER_pdbout'
p281
S'/opt/ample.git/examples/toxd-example/AMPLE_0/MRBUMP/search_c1_t69_r3_polyAla_mrbump/data/loc0_ALL_c1_t69_r3_polyAla/unmod/mr/phaser/phaser_loc0_ALL_c1_t69_r3_polyAla_UNMOD.1.pdb'
p282
sS'Job_directory'
p283
S'/opt/ample.git/examples/toxd-example/AMPLE_0/MRBUMP/search_c1_t69_r3_polyAla_mrbump/data/loc0_ALL_c1_t69_r3_polyAla/unmod/mr/phaser'
p284
sS'BUCC_pdbout'
p285
S'/opt/ample.git/examples/toxd-example/AMPLE_0/MRBUMP/search_c1_t69_r3_polyAla_mrbump/data/loc0_ALL_c1_t69_r3_polyAla/unmod/mr/phaser/build/buccaneer/buccaneer_pipeline/refined.pdb'
p286
sS'SXRARP_final_Rfree'
p287
NsS'REFMAC_mtzout'
p288
S'/opt/ample.git/examples/toxd-example/AMPLE_0/MRBUMP/search_c1_t69_r3_polyAla_mrbump/data/loc0_ALL_c1_t69_r3_polyAla/unmod/mr/phaser/refine/refmac_phaser_HKLOUT_loc0_ALL_c1_t69_r3_polyAla_UNMOD.mtz'
p289
sS'SHELXE_mtzout'
p290
S'/opt/ample.git/examples/toxd-example/AMPLE_0/MRBUMP/search_c1_t69_r3_polyAla_mrbump/data/loc0_ALL_c1_t69_r3_polyAla/unmod/mr/phaser/build/shelxe/shelxe_phaser_loc0_ALL_c1_t69_r3_polyAla_UNMOD.mtz'
p291
sS'SHELXE_phsout'
p292
S'/opt/ample.git/examples/toxd-example/AMPLE_0/MRBUMP/search_c1_t69_r3_polyAla_mrbump/data/loc0_ALL_c1_t69_r3_polyAla/unmod/mr/phaser/build/shelxe/shelxe_phaser_loc0_ALL_c1_t69_r3_polyAla_UNMOD.phs'
p293
sa(dp294
S'BUCC_mtzout'
p295
S'/opt/ample.git/examples/toxd-example/AMPLE_0/MRBUMP/search_c1_t75_r3_polyAla_mrbump/data/loc0_ALL_c1_t75_r3_polyAla/unmod/mr/phaser/build/buccaneer/buccaneer_pipeline/refined.mtz'
p296
sS'SHELXE_logfile'
p297
S'/opt/ample.git/examples/toxd-example/AMPLE_0/MRBUMP/search_c1_t75_r3_polyAla_mrbump/data/loc0_ALL_c1_t75_r3_polyAla/unmod/mr/phaser/build/shelxe/shelxe_run.log'
p298
sS'Solution_Type'
p299
S'MARGINAL'
p300
sS'PHASER_killed'
p301
I00
sS'BUCC_final_Rfact'
p302
F0.44879999999999998
sS'PHASER_time'
p303
F44.75
sg213
S'c1_t75_r3_polyAla'
p304
sS'SHELXE_wMPE'
p305
NsS'PHASER_TFZ'
p306
F6
sS'SHELXE_os'
p307
NsS'PHASER_RFZ'
p308
F4.4000000000000004
sS'BUCC_final_Rfree'
p309
F0.5232
sS'MOLREP_score'
p310
NsS'SearchModel_name'
p311
S'loc0_ALL_c1_t75_r3_polyAla_UNMOD'
p312
sS'SXRARP_version'
p313
NsS'ARP_pdbout'
p314
NsS'PHASER_LLG'
p315
F31
sS'BUCC_version'
p316
S'1.6.4'
p317
sg228
F0.49309999999999998
sS'SXRBUCC_final_Rfact'
p318
NsS'SXRARP_pdbout'
p319
NsS'PHASER_version'
p320
S'2.7.17'
p321
sS'REFMAC_logfile'
p322
S'/opt/ample.git/examples/toxd-example/AMPLE_0/MRBUMP/search_c1_t75_r3_polyAla_mrbump/data/loc0_ALL_c1_t75_r3_polyAla/unmod/mr/phaser/refine/refmac_phaser_loc0_ALL_c1_t75_r3_polyAla_UNMOD.log'
p323
sS'Search_directory'
p324
S'/opt/ample.git/examples/toxd-example/AMPLE_0/MRBUMP/search_c1_t75_r3_polyAla_mrbump'
p325
sS'SHELXE_pdbout'
p326
S'/opt/ample.git/examples/toxd-example/AMPLE_0/MRBUMP/search_c1_t75_r3_polyAla_mrbump/data/loc0_ALL_c1_t75_r3_polyAla/unmod/mr/phaser/build/shelxe/shelxe_phaser_loc0_ALL_c1_t75_r3_polyAla_UNMOD.pdb'
p327
sS'ARP_logfile'
p328
NsS'MOLREP_logfile'
p329
NsS'REFMAC_version'
p330
S'5.8.0158'
p331
sS'SXRBUCC_mtzout'
p332
NsS'SHELXE_NC'
p333
I3
sS'SXRBUCC_logfile'
p334
NsS'STATUS'
p335
S'Finished'
p336
sS'ARP_version'
p337
NsS'SHELXE_MCL'
p338
I30
sS'SXRARP_logfile'
p339
NsS'SHELXE_ACL'
p340
I17
sg252
F0.47699999999999998
sS'MOLREP_pdbout'
p341
NsS'MOLREP_version'
p342
NsS'SHELXE_time'
p343
F511.47000000000003
sS'REFMAC_pdbout'
p344
S'/opt/ample.git/examples/toxd-example/AMPLE_0/MRBUMP/search_c1_t75_r3_polyAla_mrbump/data/loc0_ALL_c1_t75_r3_polyAla/unmod/mr/phaser/refine/refmac_phaser_loc0_ALL_c1_t75_r3_polyAla_UNMOD.pdb'
p345
sS'SXRBUCC_pdbout'
p346
NsS'SHELXE_CC'
p347
F39.890000000000001
sS'SXRARP_final_Rfact'
p348
NsS'SXRBUCC_version'
p349
NsS'MOLREP_time'
p350
NsS'PHASER_logfile'
p351
S'/opt/ample.git/examples/toxd-example/AMPLE_0/MRBUMP/search_c1_t75_r3_polyAla_mrbump/data/loc0_ALL_c1_t75_r3_polyAla/unmod/mr/phaser/phaser_loc0_ALL_c1_t75_r3_polyAla_UNMOD.log'
p352
sg265
S'loc0_ALL_c1_t75_r3_polyAla_UNMOD'
p353
sS'BUCC_logfile'
p354
S'/opt/ample.git/examples/toxd-example/AMPLE_0/MRBUMP/search_c1_t75_r3_polyAla_mrbump/data/loc0_ALL_c1_t75_r3_polyAla/unmod/mr/phaser/build/buccaneer/buccaneer_run.log'
p355
sS'PHASER_mtzout'
p356
S'/opt/ample.git/examples/toxd-example/AMPLE_0/MRBUMP/search_c1_t75_r3_polyAla_mrbump/data/loc0_ALL_c1_t75_r3_polyAla/unmod/mr/phaser/phaser_loc0_ALL_c1_t75_r3_polyAla_UNMOD.1.mtz'
p357
sS'ARP_final_Rfact'
p358
NsS'SXRARP_mtzout'
p359
NsS'ARP_final_Rfree'
p360
NsS'PHASER_error'
p361
NsS'SXRBUCC_final_Rfree'
p362
NsS'ARP_mtzout'
p363
NsS'SHELXE_version'
p364
S'2016/3'
p365
sg279
S'PHASER'
p366
sS'PHASER_pdbout'
p367
S'/opt/ample.git/examples/toxd-example/AMPLE_0/MRBUMP/search_c1_t75_r3_polyAla_mrbump/data/loc0_ALL_c1_t75_r3_polyAla/unmod/mr/phaser/phaser_loc0_ALL_c1_t75_r3_polyAla_UNMOD.1.pdb'
p368
sS'Job_directory'
p369
S'/opt/ample.git/examples/toxd-example/AMPLE_0/MRBUMP/search_c1_t75_r3_polyAla_mrbump/data/loc0_ALL_c1_t75_r3_polyAla/unmod/mr/phaser'
p370
sS'BUCC_pdbout'
p371
S'/opt/ample.git/examples/toxd-example/AMPLE_0/MRBUMP/search_c1_t75_r3_polyAla_mrbump/data/loc0_ALL_c1_t75_r3_polyAla/unmod/mr/phaser/build/buccaneer/buccaneer_pipeline/refined.pdb'
p372
sS'SXRARP_final_Rfree'
p373
NsS'REFMAC_mtzout'
p374
S'/opt/ample.git/examples/toxd-example/AMPLE_0/MRBUMP/search_c1_t75_r3_polyAla_mrbump/data/loc0_ALL_c1_t75_r3_polyAla/unmod/mr/phaser/refine/refmac_phaser_HKLOUT_loc0_ALL_c1_t75_r3_polyAla_UNMOD.mtz'
p375
sS'SHELXE_mtzout'
p376
S'/opt/ample.git/examples/toxd-example/AMPLE_0/MRBUMP/search_c1_t75_r3_polyAla_mrbump/data/loc0_ALL_c1_t75_r3_polyAla/unmod/mr/phaser/build/shelxe/shelxe_phaser_loc0_ALL_c1_t75_r3_polyAla_UNMOD.mtz'
p377
sS'SHELXE_phsout'
p378
S'/opt/ample.git/examples/toxd-example/AMPLE_0/MRBUMP/search_c1_t75_r3_polyAla_mrbump/data/loc0_ALL_c1_t75_r3_polyAla/unmod/mr/phaser/build/shelxe/shelxe_phaser_loc0_ALL_c1_t75_r3_polyAla_UNMOD.phs'
p379
sa(dp380
S'BUCC_mtzout'
p381
S'/opt/ample.git/examples/toxd-example/AMPLE_0/MRBUMP/search_c1_t54_r3_polyAla_mrbump/data/loc0_ALL_c1_t54_r3_polyAla/unmod/mr/phaser/build/buccaneer/buccaneer_pipeline/refined.mtz'
p382
sS'SHELXE_logfile'
p383
S'/opt/ample.git/examples/toxd-example/AMPLE_0/MRBUMP/search_c1_t54_r3_polyAla_mrbump/data/loc0_ALL_c1_t54_r3_polyAla/unmod/mr/phaser/build/shelxe/shelxe_run.log'
p384
sS'Solution_Type'
p385
S'MARGINAL'
p386
sS'PHASER_killed'
p387
I00
sS'BUCC_final_Rfact'
p388
F0.48039999999999999
sS'PHASER_time'
p389
F56.640000000000001
sg213
S'c1_t54_r3_polyAla'
p390
sS'SHELXE_wMPE'
p391
NsS'PHASER_TFZ'
p392
F6.5
sS'SHELXE_os'
p393
NsS'PHASER_RFZ'
p394
F2.7999999999999998
sS'BUCC_final_Rfree'
p395
F0.51600000000000001
sS'MOLREP_score'
p396
NsS'SearchModel_name'
p397
S'loc0_ALL_c1_t54_r3_polyAla_UNMOD'
p398
sS'SXRARP_version'
p399
NsS'ARP_pdbout'
p400
NsS'PHASER_LLG'
p401
F27
sS'BUCC_version'
p402
S'1.6.4'
p403
sg228
F0.52310000000000001
sS'SXRBUCC_final_Rfact'
p404
NsS'SXRARP_pdbout'
p405
NsS'PHASER_version'
p406
S'2.7.17'
p407
sS'REFMAC_logfile'
p408
S'/opt/ample.git/examples/toxd-example/AMPLE_0/MRBUMP/search_c1_t54_r3_polyAla_mrbump/data/loc0_ALL_c1_t54_r3_polyAla/unmod/mr/phaser/refine/refmac_phaser_loc0_ALL_c1_t54_r3_polyAla_UNMOD.log'
p409
sS'Search_directory'
p410
S'/opt/ample.git/examples/toxd-example/AMPLE_0/MRBUMP/search_c1_t54_r3_polyAla_mrbump'
p411
sS'SHELXE_pdbout'
p412
S'/opt/ample.git/examples/toxd-example/AMPLE_0/MRBUMP/search_c1_t54_r3_polyAla_mrbump/data/loc0_ALL_c1_t54_r3_polyAla/unmod/mr/phaser/build/shelxe/shelxe_phaser_loc0_ALL_c1_t54_r3_polyAla_UNMOD.pdb'
p413
sS'ARP_logfile'
p414
NsS'MOLREP_logfile'
p415
NsS'REFMAC_version'
p416
S'5.8.0158'
p417
sS'SXRBUCC_mtzout'
p418
NsS'SHELXE_NC'
p419
I2
sS'SXRBUCC_logfile'
p420
NsS'STATUS'
p421
S'Finished'
p422
sS'ARP_version'
p423
NsS'SHELXE_MCL'
p424
I48
sS'SXRARP_logfile'
p425
NsS'SHELXE_ACL'
p426
I28
sg252
F0.4844
sS'MOLREP_pdbout'
p427
NsS'MOLREP_version'
p428
NsS'SHELXE_time'
p429
F689.86000000000001
sS'REFMAC_pdbout'
p430
S'/opt/ample.git/examples/toxd-example/AMPLE_0/MRBUMP/search_c1_t54_r3_polyAla_mrbump/data/loc0_ALL_c1_t54_r3_polyAla/unmod/mr/phaser/refine/refmac_phaser_loc0_ALL_c1_t54_r3_polyAla_UNMOD.pdb'
p431
sS'SXRBUCC_pdbout'
p432
NsS'SHELXE_CC'
p433
F39.710000000000001
sS'SXRARP_final_Rfact'
p434
NsS'SXRBUCC_version'
p435
NsS'MOLREP_time'
p436
NsS'PHASER_logfile'
p437
S'/opt/ample.git/examples/toxd-example/AMPLE_0/MRBUMP/search_c1_t54_r3_polyAla_mrbump/data/loc0_ALL_c1_t54_r3_polyAla/unmod/mr/phaser/phaser_loc0_ALL_c1_t54_r3_polyAla_UNMOD.log'
p438
sg265
S'loc0_ALL_c1_t54_r3_polyAla_UNMOD'
p439
sS'BUCC_logfile'
p440
S'/opt/ample.git/examples/toxd-example/AMPLE_0/MRBUMP/search_c1_t54_r3_polyAla_mrbump/data/loc0_ALL_c1_t54_r3_polyAla/unmod/mr/phaser/build/buccaneer/buccaneer_run.log'
p441
sS'PHASER_mtzout'
p442
S'/opt/ample.git/examples/toxd-example/AMPLE_0/MRBUMP/search_c1_t54_r3_polyAla_mrbump/data/loc0_ALL_c1_t54_r3_polyAla/unmod/mr/phaser/phaser_loc0_ALL_c1_t54_r3_polyAla_UNMOD.1.mtz'
p443
sS'ARP_final_Rfact'
p444
NsS'SXRARP_mtzout'
p445
NsS'ARP_final_Rfree'
p446
NsS'PHASER_error'
p447
NsS'SXRBUCC_final_Rfree'
p448
NsS'ARP_mtzout'
p449
NsS'SHELXE_version'
p450
S'2016/3'
p451
sg279
S'PHASER'
p452
sS'PHASER_pdbout'
p453
S'/opt/ample.git/examples/toxd-example/AMPLE_0/MRBUMP/search_c1_t54_r3_polyAla_mrbump/data/loc0_ALL_c1_t54_r3_polyAla/unmod/mr/phaser/phaser_loc0_ALL_c1_t54_r3_polyAla_UNMOD.1.pdb'
p454
sS'Job_directory'
p455
S'/opt/ample.git/examples/toxd-example/AMPLE_0/MRBUMP/search_c1_t54_r3_polyAla_mrbump/data/loc0_ALL_c1_t54_r3_polyAla/unmod/mr/phaser'
p456
sS'BUCC_pdbout'
p457
S'/opt/ample.git/examples/toxd-example/AMPLE_0/MRBUMP/search_c1_t54_r3_polyAla_mrbump/data/loc0_ALL_c1_t54_r3_polyAla/unmod/mr/phaser/build/buccaneer/buccaneer_pipeline/refined.pdb'
p458
sS'SXRARP_final_Rfree'
p459
NsS'REFMAC_mtzout'
p460
S'/opt/ample.git/examples/toxd-example/AMPLE_0/MRBUMP/search_c1_t54_r3_polyAla_mrbump/data/loc0_ALL_c1_t54_r3_polyAla/unmod/mr/phaser/refine/refmac_phaser_HKLOUT_loc0_ALL_c1_t54_r3_polyAla_UNMOD.mtz'
p461
sS'SHELXE_mtzout'
p462
S'/opt/ample.git/examples/toxd-example/AMPLE_0/MRBUMP/search_c1_t54_r3_polyAla_mrbump/data/loc0_ALL_c1_t54_r3_polyAla/unmod/mr/phaser/build/shelxe/shelxe_phaser_loc0_ALL_c1_t54_r3_polyAla_UNMOD.mtz'
p463
sS'SHELXE_phsout'
p464
S'/opt/ample.git/examples/toxd-example/AMPLE_0/MRBUMP/search_c1_t54_r3_polyAla_mrbump/data/loc0_ALL_c1_t54_r3_polyAla/unmod/mr/phaser/build/shelxe/shelxe_phaser_loc0_ALL_c1_t54_r3_polyAla_UNMOD.phs'
p465
sa(dp466
S'BUCC_mtzout'
p467
S'/opt/ample.git/examples/toxd-example/AMPLE_0/MRBUMP/search_c1_t64_r1_polyAla_mrbump/data/loc0_ALL_c1_t64_r1_polyAla/unmod/mr/phaser/build/buccaneer/buccaneer_pipeline/refined.mtz'
p468
sS'SHELXE_logfile'
p469
S'/opt/ample.git/examples/toxd-example/AMPLE_0/MRBUMP/search_c1_t64_r1_polyAla_mrbump/data/loc0_ALL_c1_t64_r1_polyAla/unmod/mr/phaser/build/shelxe/shelxe_run.log'
p470
sS'Solution_Type'
p471
S'MARGINAL'
p472
sS'PHASER_killed'
p473
I00
sS'BUCC_final_Rfact'
p474
F0.45689999999999997
sS'PHASER_time'
p475
F23
sg213
S'c1_t64_r1_polyAla'
p476
sS'SHELXE_wMPE'
p477
NsS'PHASER_TFZ'
p478
F7.5999999999999996
sS'SHELXE_os'
p479
NsS'PHASER_RFZ'
p480
F4.7999999999999998
sS'BUCC_final_Rfree'
p481
F0.42709999999999998
sS'MOLREP_score'
p482
NsS'SearchModel_name'
p483
S'loc0_ALL_c1_t64_r1_polyAla_UNMOD'
p484
sS'SXRARP_version'
p485
NsS'ARP_pdbout'
p486
NsS'PHASER_LLG'
p487
F52
sS'BUCC_version'
p488
S'1.6.4'
p489
sg228
F0.51000000000000001
sS'SXRBUCC_final_Rfact'
p490
NsS'SXRARP_pdbout'
p491
NsS'PHASER_version'
p492
S'2.7.17'
p493
sS'REFMAC_logfile'
p494
S'/opt/ample.git/examples/toxd-example/AMPLE_0/MRBUMP/search_c1_t64_r1_polyAla_mrbump/data/loc0_ALL_c1_t64_r1_polyAla/unmod/mr/phaser/refine/refmac_phaser_loc0_ALL_c1_t64_r1_polyAla_UNMOD.log'
p495
sS'Search_directory'
p496
S'/opt/ample.git/examples/toxd-example/AMPLE_0/MRBUMP/search_c1_t64_r1_polyAla_mrbump'
p497
sS'SHELXE_pdbout'
p498
S'/opt/ample.git/examples/toxd-example/AMPLE_0/MRBUMP/search_c1_t64_r1_polyAla_mrbump/data/loc0_ALL_c1_t64_r1_polyAla/unmod/mr/phaser/build/shelxe/shelxe_phaser_loc0_ALL_c1_t64_r1_polyAla_UNMOD.pdb'
p499
sS'ARP_logfile'
p500
NsS'MOLREP_logfile'
p501
NsS'REFMAC_version'
p502
S'5.8.0158'
p503
sS'SXRBUCC_mtzout'
p504
NsS'SHELXE_NC'
p505
I4
sS'SXRBUCC_logfile'
p506
NsS'STATUS'
p507
S'Finished'
p508
sS'ARP_version'
p509
NsS'SHELXE_MCL'
p510
I16
sS'SXRARP_logfile'
p511
NsS'SHELXE_ACL'
p512
I13
sg252
F0.46350000000000002
sS'MOLREP_pdbout'
p513
NsS'MOLREP_version'
p514
NsS'SHELXE_time'
p515
F690.76999999999998
sS'REFMAC_pdbout'
p516
S'/opt/ample.git/examples/toxd-example/AMPLE_0/MRBUMP/search_c1_t64_r1_polyAla_mrbump/data/loc0_ALL_c1_t64_r1_polyAla/unmod/mr/phaser/refine/refmac_phaser_loc0_ALL_c1_t64_r1_polyAla_UNMOD.pdb'
p517
sS'SXRBUCC_pdbout'
p518
NsS'SHELXE_CC'
p519
F38.759999999999998
sS'SXRARP_final_Rfact'
p520
NsS'SXRBUCC_version'
p521
NsS'MOLREP_time'
p522
NsS'PHASER_logfile'
p523
S'/opt/ample.git/examples/toxd-example/AMPLE_0/MRBUMP/search_c1_t64_r1_polyAla_mrbump/data/loc0_ALL_c1_t64_r1_polyAla/unmod/mr/phaser/phaser_loc0_ALL_c1_t64_r1_polyAla_UNMOD.log'
p524
sg265
S'loc0_ALL_c1_t64_r1_polyAla_UNMOD'
p525
sS'BUCC_logfile'
p526
S'/opt/ample.git/examples/toxd-example/AMPLE_0/MRBUMP/search_c1_t64_r1_polyAla_mrbump/data/loc0_ALL_c1_t64_r1_polyAla/unmod/mr/phaser/build/buccaneer/buccaneer_run.log'
p527
sS'PHASER_mtzout'
p528
S'/opt/ample.git/examples/toxd-example/AMPLE_0/MRBUMP/search_c1_t64_r1_polyAla_mrbump/data/loc0_ALL_c1_t64_r1_polyAla/unmod/mr/phaser/phaser_loc0_ALL_c1_t64_r1_polyAla_UNMOD.1.mtz'
p529
sS'ARP_final_Rfact'
p530
NsS'SXRARP_mtzout'
p531
NsS'ARP_final_Rfree'
p532
NsS'PHASER_error'
p533
NsS'SXRBUCC_final_Rfree'
p534
NsS'ARP_mtzout'
p535
NsS'SHELXE_version'
p536
S'2016/3'
p537
sg279
S'PHASER'
p538
sS'PHASER_pdbout'
p539
S'/opt/ample.git/examples/toxd-example/AMPLE_0/MRBUMP/search_c1_t64_r1_polyAla_mrbump/data/loc0_ALL_c1_t64_r1_polyAla/unmod/mr/phaser/phaser_loc0_ALL_c1_t64_r1_polyAla_UNMOD.1.pdb'
p540
sS'Job_directory'
p541
S'/opt/ample.git/examples/toxd-example/AMPLE_0/MRBUMP/search_c1_t64_r1_polyAla_mrbump/data/loc0_ALL_c1_t64_r1_polyAla/unmod/mr/phaser'
p542
sS'BUCC_pdbout'
p543
S'/opt/ample.git/examples/toxd-example/AMPLE_0/MRBUMP/search_c1_t64_r1_polyAla_mrbump/data/loc0_ALL_c1_t64_r1_polyAla/unmod/mr/phaser/build/buccaneer/buccaneer_pipeline/refined.pdb'
p544
sS'SXRARP_final_Rfree'
p545
NsS'REFMAC_mtzout'
p546
S'/opt/ample.git/examples/toxd-example/AMPLE_0/MRBUMP/search_c1_t64_r1_polyAla_mrbump/data/loc0_ALL_c1_t64_r1_polyAla/unmod/mr/phaser/refine/refmac_phaser_HKLOUT_loc0_ALL_c1_t64_r1_polyAla_UNMOD.mtz'
p547
sS'SHELXE_mtzout'
p548
S'/opt/ample.git/examples/toxd-example/AMPLE_0/MRBUMP/search_c1_t64_r1_polyAla_mrbump/data/loc0_ALL_c1_t64_r1_polyAla/unmod/mr/phaser/build/shelxe/shelxe_phaser_loc0_ALL_c1_t64_r1_polyAla_UNMOD.mtz'
p549
sS'SHELXE_phsout'
p550
S'/opt/ample.git/examples/toxd-example/AMPLE_0/MRBUMP/search_c1_t64_r1_polyAla_mrbump/data/loc0_ALL_c1_t64_r1_polyAla/unmod/mr/phaser/build/shelxe/shelxe_phaser_loc0_ALL_c1_t64_r1_polyAla_UNMOD.phs'
p551
sa(dp552
S'BUCC_mtzout'
p553
S'/opt/ample.git/examples/toxd-example/AMPLE_0/MRBUMP/search_c1_t69_r1_polyAla_mrbump/data/loc0_ALL_c1_t69_r1_polyAla/unmod/mr/phaser/build/buccaneer/buccaneer_pipeline/refined.mtz'
p554
sS'SHELXE_logfile'
p555
S'/opt/ample.git/examples/toxd-example/AMPLE_0/MRBUMP/search_c1_t69_r1_polyAla_mrbump/data/loc0_ALL_c1_t69_r1_polyAla/unmod/mr/phaser/build/shelxe/shelxe_run.log'
p556
sS'Solution_Type'
p557
S'MARGINAL'
p558
sS'PHASER_killed'
p559
I00
sS'BUCC_final_Rfact'
p560
F0.39779999999999999
sS'PHASER_time'
p561
F17.780000000000001
sg213
S'c1_t69_r1_polyAla'
p562
sS'SHELXE_wMPE'
p563
NsS'PHASER_TFZ'
p564
F7.7999999999999998
sS'SHELXE_os'
p565
NsS'PHASER_RFZ'
p566
F5.5999999999999996
sS'BUCC_final_Rfree'
p567
F0.41909999999999997
sS'MOLREP_score'
p568
NsS'SearchModel_name'
p569
S'loc0_ALL_c1_t69_r1_polyAla_UNMOD'
p570
sS'SXRARP_version'
p571
NsS'ARP_pdbout'
p572
NsS'PHASER_LLG'
p573
F59
sS'BUCC_version'
p574
S'1.6.4'
p575
sg228
F0.50009999999999999
sS'SXRBUCC_final_Rfact'
p576
NsS'SXRARP_pdbout'
p577
NsS'PHASER_version'
p578
S'2.7.17'
p579
sS'REFMAC_logfile'
p580
S'/opt/ample.git/examples/toxd-example/AMPLE_0/MRBUMP/search_c1_t69_r1_polyAla_mrbump/data/loc0_ALL_c1_t69_r1_polyAla/unmod/mr/phaser/refine/refmac_phaser_loc0_ALL_c1_t69_r1_polyAla_UNMOD.log'
p581
sS'Search_directory'
p582
S'/opt/ample.git/examples/toxd-example/AMPLE_0/MRBUMP/search_c1_t69_r1_polyAla_mrbump'
p583
sS'SHELXE_pdbout'
p584
S'/opt/ample.git/examples/toxd-example/AMPLE_0/MRBUMP/search_c1_t69_r1_polyAla_mrbump/data/loc0_ALL_c1_t69_r1_polyAla/unmod/mr/phaser/build/shelxe/shelxe_phaser_loc0_ALL_c1_t69_r1_polyAla_UNMOD.pdb'
p585
sS'ARP_logfile'
p586
NsS'MOLREP_logfile'
p587
NsS'REFMAC_version'
p588
S'5.8.0158'
p589
sS'SXRBUCC_mtzout'
p590
NsS'SHELXE_NC'
p591
I3
sS'SXRBUCC_logfile'
p592
NsS'STATUS'
p593
S'Finished'
p594
sS'ARP_version'
p595
NsS'SHELXE_MCL'
p596
I30
sS'SXRARP_logfile'
p597
NsS'SHELXE_ACL'
p598
I17
sg252
F0.47910000000000003
sS'MOLREP_pdbout'
p599
NsS'MOLREP_version'
p600
NsS'SHELXE_time'
p601
F634.66999999999996
sS'REFMAC_pdbout'
p602
S'/opt/ample.git/examples/toxd-example/AMPLE_0/MRBUMP/search_c1_t69_r1_polyAla_mrbump/data/loc0_ALL_c1_t69_r1_polyAla/unmod/mr/phaser/refine/refmac_phaser_loc0_ALL_c1_t69_r1_polyAla_UNMOD.pdb'
p603
sS'SXRBUCC_pdbout'
p604
NsS'SHELXE_CC'
p605
F38.549999999999997
sS'SXRARP_final_Rfact'
p606
NsS'SXRBUCC_version'
p607
NsS'MOLREP_time'
p608
NsS'PHASER_logfile'
p609
S'/opt/ample.git/examples/toxd-example/AMPLE_0/MRBUMP/search_c1_t69_r1_polyAla_mrbump/data/loc0_ALL_c1_t69_r1_polyAla/unmod/mr/phaser/phaser_loc0_ALL_c1_t69_r1_polyAla_UNMOD.log'
p610
sg265
S'loc0_ALL_c1_t69_r1_polyAla_UNMOD'
p611
sS'BUCC_logfile'
p612
S'/opt/ample.git/examples/toxd-example/AMPLE_0/MRBUMP/search_c1_t69_r1_polyAla_mrbump/data/loc0_ALL_c1_t69_r1_polyAla/unmod/mr/phaser/build/buccaneer/buccaneer_run.log'
p613
sS'PHASER_mtzout'
p614
S'/opt/ample.git/examples/toxd-example/AMPLE_0/MRBUMP/search_c1_t69_r1_polyAla_mrbump/data/loc0_ALL_c1_t69_r1_polyAla/unmod/mr/phaser/phaser_loc0_ALL_c1_t69_r1_polyAla_UNMOD.1.mtz'
p615
sS'ARP_final_Rfact'
p616
NsS'SXRARP_mtzout'
p617
NsS'ARP_final_Rfree'
p618
NsS'PHASER_error'
p619
NsS'SXRBUCC_final_Rfree'
p620
NsS'ARP_mtzout'
p621
NsS'SHELXE_version'
p622
S'2016/3'
p623
sg279
S'PHASER'
p624
sS'PHASER_pdbout'
p625
S'/opt/ample.git/examples/toxd-example/AMPLE_0/MRBUMP/search_c1_t69_r1_polyAla_mrbump/data/loc0_ALL_c1_t69_r1_polyAla/unmod/mr/phaser/phaser_loc0_ALL_c1_t69_r1_polyAla_UNMOD.1.pdb'
p626
sS'Job_directory'
p627
S'/opt/ample.git/examples/toxd-example/AMPLE_0/MRBUMP/search_c1_t69_r1_polyAla_mrbump/data/loc0_ALL_c1_t69_r1_polyAla/unmod/mr/phaser'
p628
sS'BUCC_pdbout'
p629
S'/opt/ample.git/examples/toxd-example/AMPLE_0/MRBUMP/search_c1_t69_r1_polyAla_mrbump/data/loc0_ALL_c1_t69_r1_polyAla/unmod/mr/phaser/build/buccaneer/buccaneer_pipeline/refined.pdb'
p630
sS'SXRARP_final_Rfree'
p631
NsS'REFMAC_mtzout'
p632
S'/opt/ample.git/examples/toxd-example/AMPLE_0/MRBUMP/search_c1_t69_r1_polyAla_mrbump/data/loc0_ALL_c1_t69_r1_polyAla/unmod/mr/phaser/refine/refmac_phaser_HKLOUT_loc0_ALL_c1_t69_r1_polyAla_UNMOD.mtz'
p633
sS'SHELXE_mtzout'
p634
S'/opt/ample.git/examples/toxd-example/AMPLE_0/MRBUMP/search_c1_t69_r1_polyAla_mrbump/data/loc0_ALL_c1_t69_r1_polyAla/unmod/mr/phaser/build/shelxe/shelxe_phaser_loc0_ALL_c1_t69_r1_polyAla_UNMOD.mtz'
p635
sS'SHELXE_phsout'
p636
S'/opt/ample.git/examples/toxd-example/AMPLE_0/MRBUMP/search_c1_t69_r1_polyAla_mrbump/data/loc0_ALL_c1_t69_r1_polyAla/unmod/mr/phaser/build/shelxe/shelxe_phaser_loc0_ALL_c1_t69_r1_polyAla_UNMOD.phs'
p637
sa(dp638
S'BUCC_mtzout'
p639
S'/opt/ample.git/examples/toxd-example/AMPLE_0/MRBUMP/search_c1_t75_r1_polyAla_mrbump/data/loc0_ALL_c1_t75_r1_polyAla/unmod/mr/phaser/build/buccaneer/buccaneer_pipeline/refined.mtz'
p640
sS'SHELXE_logfile'
p641
S'/opt/ample.git/examples/toxd-example/AMPLE_0/MRBUMP/search_c1_t75_r1_polyAla_mrbump/data/loc0_ALL_c1_t75_r1_polyAla/unmod/mr/phaser/build/shelxe/shelxe_run.log'
p642
sS'Solution_Type'
p643
S'MARGINAL'
p644
sS'PHASER_killed'
p645
I00
sS'BUCC_final_Rfact'
p646
F0.40910000000000002
sS'PHASER_time'
p647
F23.260000000000002
sg213
S'c1_t75_r1_polyAla'
p648
sS'SHELXE_wMPE'
p649
NsS'PHASER_TFZ'
p650
F9.6999999999999993
sS'SHELXE_os'
p651
NsS'PHASER_RFZ'
p652
F5.0999999999999996
sS'BUCC_final_Rfree'
p653
F0.43669999999999998
sS'MOLREP_score'
p654
NsS'SearchModel_name'
p655
S'loc0_ALL_c1_t75_r1_polyAla_UNMOD'
p656
sS'SXRARP_version'
p657
NsS'ARP_pdbout'
p658
NsS'PHASER_LLG'
p659
F73
sS'BUCC_version'
p660
S'1.6.4'
p661
sg228
F0.49259999999999998
sS'SXRBUCC_final_Rfact'
p662
NsS'SXRARP_pdbout'
p663
NsS'PHASER_version'
p664
S'2.7.17'
p665
sS'REFMAC_logfile'
p666
S'/opt/ample.git/examples/toxd-example/AMPLE_0/MRBUMP/search_c1_t75_r1_polyAla_mrbump/data/loc0_ALL_c1_t75_r1_polyAla/unmod/mr/phaser/refine/refmac_phaser_loc0_ALL_c1_t75_r1_polyAla_UNMOD.log'
p667
sS'Search_directory'
p668
S'/opt/ample.git/examples/toxd-example/AMPLE_0/MRBUMP/search_c1_t75_r1_polyAla_mrbump'
p669
sS'SHELXE_pdbout'
p670
S'/opt/ample.git/examples/toxd-example/AMPLE_0/MRBUMP/search_c1_t75_r1_polyAla_mrbump/data/loc0_ALL_c1_t75_r1_polyAla/unmod/mr/phaser/build/shelxe/shelxe_phaser_loc0_ALL_c1_t75_r1_polyAla_UNMOD.pdb'
p671
sS'ARP_logfile'
p672
NsS'MOLREP_logfile'
p673
NsS'REFMAC_version'
p674
S'5.8.0158'
p675
sS'SXRBUCC_mtzout'
p676
NsS'SHELXE_NC'
p677
I4
sS'SXRBUCC_logfile'
p678
NsS'STATUS'
p679
S'Finished'
p680
sS'ARP_version'
p681
NsS'SHELXE_MCL'
p682
I16
sS'SXRARP_logfile'
p683
NsS'SHELXE_ACL'
p684
I12
sg252
F0.47110000000000002
sS'MOLREP_pdbout'
p685
NsS'MOLREP_version'
p686
NsS'SHELXE_time'
p687
F502.66000000000003
sS'REFMAC_pdbout'
p688
S'/opt/ample.git/examples/toxd-example/AMPLE_0/MRBUMP/search_c1_t75_r1_polyAla_mrbump/data/loc0_ALL_c1_t75_r1_polyAla/unmod/mr/phaser/refine/refmac_phaser_loc0_ALL_c1_t75_r1_polyAla_UNMOD.pdb'
p689
sS'SXRBUCC_pdbout'
p690
NsS'SHELXE_CC'
p691
F38.020000000000003
sS'SXRARP_final_Rfact'
p692
NsS'SXRBUCC_version'
p693
NsS'MOLREP_time'
p694
NsS'PHASER_logfile'
p695
S'/opt/ample.git/examples/toxd-example/AMPLE_0/MRBUMP/search_c1_t75_r1_polyAla_mrbump/data/loc0_ALL_c1_t75_r1_polyAla/unmod/mr/phaser/phaser_loc0_ALL_c1_t75_r1_polyAla_UNMOD.log'
p696
sg265
S'loc0_ALL_c1_t75_r1_polyAla_UNMOD'
p697
sS'BUCC_logfile'
p698
S'/opt/ample.git/examples/toxd-example/AMPLE_0/MRBUMP/search_c1_t75_r1_polyAla_mrbump/data/loc0_ALL_c1_t75_r1_polyAla/unmod/mr/phaser/build/buccaneer/buccaneer_run.log'
p699
sS'PHASER_mtzout'
p700
S'/opt/ample.git/examples/toxd-example/AMPLE_0/MRBUMP/search_c1_t75_r1_polyAla_mrbump/data/loc0_ALL_c1_t75_r1_polyAla/unmod/mr/phaser/phaser_loc0_ALL_c1_t75_r1_polyAla_UNMOD.1.mtz'
p701
sS'ARP_final_Rfact'
p702
NsS'SXRARP_mtzout'
p703
NsS'ARP_final_Rfree'
p704
NsS'PHASER_error'
p705
NsS'SXRBUCC_final_Rfree'
p706
NsS'ARP_mtzout'
p707
NsS'SHELXE_version'
p708
S'2016/3'
p709
sg279
S'PHASER'
p710
sS'PHASER_pdbout'
p711
S'/opt/ample.git/examples/toxd-example/AMPLE_0/MRBUMP/search_c1_t75_r1_polyAla_mrbump/data/loc0_ALL_c1_t75_r1_polyAla/unmod/mr/phaser/phaser_loc0_ALL_c1_t75_r1_polyAla_UNMOD.1.pdb'
p712
sS'Job_directory'
p713
S'/opt/ample.git/examples/toxd-example/AMPLE_0/MRBUMP/search_c1_t75_r1_polyAla_mrbump/data/loc0_ALL_c1_t75_r1_polyAla/unmod/mr/phaser'
p714
sS'BUCC_pdbout'
p715
S'/opt/ample.git/examples/toxd-example/AMPLE_0/MRBUMP/search_c1_t75_r1_polyAla_mrbump/data/loc0_ALL_c1_t75_r1_polyAla/unmod/mr/phaser/build/buccaneer/buccaneer_pipeline/refined.pdb'
p716
sS'SXRARP_final_Rfree'
p717
NsS'REFMAC_mtzout'
p718
S'/opt/ample.git/examples/toxd-example/AMPLE_0/MRBUMP/search_c1_t75_r1_polyAla_mrbump/data/loc0_ALL_c1_t75_r1_polyAla/unmod/mr/phaser/refine/refmac_phaser_HKLOUT_loc0_ALL_c1_t75_r1_polyAla_UNMOD.mtz'
p719
sS'SHELXE_mtzout'
p720
S'/opt/ample.git/examples/toxd-example/AMPLE_0/MRBUMP/search_c1_t75_r1_polyAla_mrbump/data/loc0_ALL_c1_t75_r1_polyAla/unmod/mr/phaser/build/shelxe/shelxe_phaser_loc0_ALL_c1_t75_r1_polyAla_UNMOD.mtz'
p721
sS'SHELXE_phsout'
p722
S'/opt/ample.git/examples/toxd-example/AMPLE_0/MRBUMP/search_c1_t75_r1_polyAla_mrbump/data/loc0_ALL_c1_t75_r1_polyAla/unmod/mr/phaser/build/shelxe/shelxe_phaser_loc0_ALL_c1_t75_r1_polyAla_UNMOD.phs'
p723
sa(dp724
S'BUCC_mtzout'
p725
S'/opt/ample.git/examples/toxd-example/AMPLE_0/MRBUMP/search_c1_t80_r1_polyAla_mrbump/data/loc0_ALL_c1_t80_r1_polyAla/unmod/mr/phaser/build/buccaneer/buccaneer_pipeline/refined.mtz'
p726
sS'SHELXE_logfile'
p727
S'/opt/ample.git/examples/toxd-example/AMPLE_0/MRBUMP/search_c1_t80_r1_polyAla_mrbump/data/loc0_ALL_c1_t80_r1_polyAla/unmod/mr/phaser/build/shelxe/shelxe_run.log'
p728
sS'Solution_Type'
p729
S'MARGINAL'
p730
sS'PHASER_killed'
p731
I00
sS'BUCC_final_Rfact'
p732
F0.33860000000000001
sS'PHASER_time'
p733
F15.9
sg213
S'c1_t80_r1_polyAla'
p734
sS'SHELXE_wMPE'
p735
NsS'PHASER_TFZ'
p736
F10.5
sS'SHELXE_os'
p737
NsS'PHASER_RFZ'
p738
F5.7999999999999998
sS'BUCC_final_Rfree'
p739
F0.3891
sS'MOLREP_score'
p740
NsS'SearchModel_name'
p741
S'loc0_ALL_c1_t80_r1_polyAla_UNMOD'
p742
sS'SXRARP_version'
p743
NsS'ARP_pdbout'
p744
NsS'PHASER_LLG'
p745
F80
sS'BUCC_version'
p746
S'1.6.4'
p747
sg228
F0.48449999999999999
sS'SXRBUCC_final_Rfact'
p748
NsS'SXRARP_pdbout'
p749
NsS'PHASER_version'
p750
S'2.7.17'
p751
sS'REFMAC_logfile'
p752
S'/opt/ample.git/examples/toxd-example/AMPLE_0/MRBUMP/search_c1_t80_r1_polyAla_mrbump/data/loc0_ALL_c1_t80_r1_polyAla/unmod/mr/phaser/refine/refmac_phaser_loc0_ALL_c1_t80_r1_polyAla_UNMOD.log'
p753
sS'Search_directory'
p754
S'/opt/ample.git/examples/toxd-example/AMPLE_0/MRBUMP/search_c1_t80_r1_polyAla_mrbump'
p755
sS'SHELXE_pdbout'
p756
S'/opt/ample.git/examples/toxd-example/AMPLE_0/MRBUMP/search_c1_t80_r1_polyAla_mrbump/data/loc0_ALL_c1_t80_r1_polyAla/unmod/mr/phaser/build/shelxe/shelxe_phaser_loc0_ALL_c1_t80_r1_polyAla_UNMOD.pdb'
p757
sS'ARP_logfile'
p758
NsS'MOLREP_logfile'
p759
NsS'REFMAC_version'
p760
S'5.8.0158'
p761
sS'SXRBUCC_mtzout'
p762
NsS'SHELXE_NC'
p763
I3
sS'SXRBUCC_logfile'
p764
NsS'STATUS'
p765
S'Finished'
p766
sS'ARP_version'
p767
NsS'SHELXE_MCL'
p768
I25
sS'SXRARP_logfile'
p769
NsS'SHELXE_ACL'
p770
I17
sg252
F0.45679999999999998
sS'MOLREP_pdbout'
p771
NsS'MOLREP_version'
p772
NsS'SHELXE_time'
p773
F487.70999999999998
sS'REFMAC_pdbout'
p774
S'/opt/ample.git/examples/toxd-example/AMPLE_0/MRBUMP/search_c1_t80_r1_polyAla_mrbump/data/loc0_ALL_c1_t80_r1_polyAla/unmod/mr/phaser/refine/refmac_phaser_loc0_ALL_c1_t80_r1_polyAla_UNMOD.pdb'
p775
sS'SXRBUCC_pdbout'
p776
NsS'SHELXE_CC'
p777
F36.109999999999999
sS'SXRARP_final_Rfact'
p778
NsS'SXRBUCC_version'
p779
NsS'MOLREP_time'
p780
NsS'PHASER_logfile'
p781
S'/opt/ample.git/examples/toxd-example/AMPLE_0/MRBUMP/search_c1_t80_r1_polyAla_mrbump/data/loc0_ALL_c1_t80_r1_polyAla/unmod/mr/phaser/phaser_loc0_ALL_c1_t80_r1_polyAla_UNMOD.log'
p782
sg265
S'loc0_ALL_c1_t80_r1_polyAla_UNMOD'
p783
sS'BUCC_logfile'
p784
S'/opt/ample.git/examples/toxd-example/AMPLE_0/MRBUMP/search_c1_t80_r1_polyAla_mrbump/data/loc0_ALL_c1_t80_r1_polyAla/unmod/mr/phaser/build/buccaneer/buccaneer_run.log'
p785
sS'PHASER_mtzout'
p786
S'/opt/ample.git/examples/toxd-example/AMPLE_0/MRBUMP/search_c1_t80_r1_polyAla_mrbump/data/loc0_ALL_c1_t80_r1_polyAla/unmod/mr/phaser/phaser_loc0_ALL_c1_t80_r1_polyAla_UNMOD.1.mtz'
p787
sS'ARP_final_Rfact'
p788
NsS'SXRARP_mtzout'
p789
NsS'ARP_final_Rfree'
p790
NsS'PHASER_error'
p791
NsS'SXRBUCC_final_Rfree'
p792
NsS'ARP_mtzout'
p793
NsS'SHELXE_version'
p794
S'2016/3'
p795
sg279
S'PHASER'
p796
sS'PHASER_pdbout'
p797
S'/opt/ample.git/examples/toxd-example/AMPLE_0/MRBUMP/search_c1_t80_r1_polyAla_mrbump/data/loc0_ALL_c1_t80_r1_polyAla/unmod/mr/phaser/phaser_loc0_ALL_c1_t80_r1_polyAla_UNMOD.1.pdb'
p798
sS'Job_directory'
p799
S'/opt/ample.git/examples/toxd-example/AMPLE_0/MRBUMP/search_c1_t80_r1_polyAla_mrbump/data/loc0_ALL_c1_t80_r1_polyAla/unmod/mr/phaser'
p800
sS'BUCC_pdbout'
p801
S'/opt/ample.git/examples/toxd-example/AMPLE_0/MRBUMP/search_c1_t80_r1_polyAla_mrbump/data/loc0_ALL_c1_t80_r1_polyAla/unmod/mr/phaser/build/buccaneer/buccaneer_pipeline/refined.pdb'
p802
sS'SXRARP_final_Rfree'
p803
NsS'REFMAC_mtzout'
p804
S'/opt/ample.git/examples/toxd-example/AMPLE_0/MRBUMP/search_c1_t80_r1_polyAla_mrbump/data/loc0_ALL_c1_t80_r1_polyAla/unmod/mr/phaser/refine/refmac_phaser_HKLOUT_loc0_ALL_c1_t80_r1_polyAla_UNMOD.mtz'
p805
sS'SHELXE_mtzout'
p806
S'/opt/ample.git/examples/toxd-example/AMPLE_0/MRBUMP/search_c1_t80_r1_polyAla_mrbump/data/loc0_ALL_c1_t80_r1_polyAla/unmod/mr/phaser/build/shelxe/shelxe_phaser_loc0_ALL_c1_t80_r1_polyAla_UNMOD.mtz'
p807
sS'SHELXE_phsout'
p808
S'/opt/ample.git/examples/toxd-example/AMPLE_0/MRBUMP/search_c1_t80_r1_polyAla_mrbump/data/loc0_ALL_c1_t80_r1_polyAla/unmod/mr/phaser/build/shelxe/shelxe_phaser_loc0_ALL_c1_t80_r1_polyAla_UNMOD.phs'
p809
sa(dp810
S'BUCC_mtzout'
p811
S'/opt/ample.git/examples/toxd-example/AMPLE_0/MRBUMP/search_c1_t54_r1_polyAla_mrbump/data/loc0_ALL_c1_t54_r1_polyAla/unmod/mr/phaser/build/buccaneer/buccaneer_pipeline/refined.mtz'
p812
sS'SHELXE_logfile'
p813
S'/opt/ample.git/examples/toxd-example/AMPLE_0/MRBUMP/search_c1_t54_r1_polyAla_mrbump/data/loc0_ALL_c1_t54_r1_polyAla/unmod/mr/phaser/build/shelxe/shelxe_run.log'
p814
sS'Solution_Type'
p815
S'MARGINAL'
p816
sS'PHASER_killed'
p817
I00
sS'BUCC_final_Rfact'
p818
F0.52449999999999997
sS'PHASER_time'
p819
F39.25
sg213
S'c1_t54_r1_polyAla'
p820
sS'SHELXE_wMPE'
p821
NsS'PHASER_TFZ'
p822
F7.5999999999999996
sS'SHELXE_os'
p823
NsS'PHASER_RFZ'
p824
F3.7999999999999998
sS'BUCC_final_Rfree'
p825
F0.53359999999999996
sS'MOLREP_score'
p826
NsS'SearchModel_name'
p827
S'loc0_ALL_c1_t54_r1_polyAla_UNMOD'
p828
sS'SXRARP_version'
p829
NsS'ARP_pdbout'
p830
NsS'PHASER_LLG'
p831
F38
sS'BUCC_version'
p832
S'1.6.4'
p833
sg228
F0.52129999999999999
sS'SXRBUCC_final_Rfact'
p834
NsS'SXRARP_pdbout'
p835
NsS'PHASER_version'
p836
S'2.7.17'
p837
sS'REFMAC_logfile'
p838
S'/opt/ample.git/examples/toxd-example/AMPLE_0/MRBUMP/search_c1_t54_r1_polyAla_mrbump/data/loc0_ALL_c1_t54_r1_polyAla/unmod/mr/phaser/refine/refmac_phaser_loc0_ALL_c1_t54_r1_polyAla_UNMOD.log'
p839
sS'Search_directory'
p840
S'/opt/ample.git/examples/toxd-example/AMPLE_0/MRBUMP/search_c1_t54_r1_polyAla_mrbump'
p841
sS'SHELXE_pdbout'
p842
S'/opt/ample.git/examples/toxd-example/AMPLE_0/MRBUMP/search_c1_t54_r1_polyAla_mrbump/data/loc0_ALL_c1_t54_r1_polyAla/unmod/mr/phaser/build/shelxe/shelxe_phaser_loc0_ALL_c1_t54_r1_polyAla_UNMOD.pdb'
p843
sS'ARP_logfile'
p844
NsS'MOLREP_logfile'
p845
NsS'REFMAC_version'
p846
S'5.8.0158'
p847
sS'SXRBUCC_mtzout'
p848
NsS'SHELXE_NC'
p849
I3
sS'SXRBUCC_logfile'
p850
NsS'STATUS'
p851
S'Finished'
p852
sS'ARP_version'
p853
NsS'SHELXE_MCL'
p854
I30
sS'SXRARP_logfile'
p855
NsS'SHELXE_ACL'
p856
I16
sg252
F0.46179999999999999
sS'MOLREP_pdbout'
p857
NsS'MOLREP_version'
p858
NsS'SHELXE_time'
p859
F696.19000000000005
sS'REFMAC_pdbout'
p860
S'/opt/ample.git/examples/toxd-example/AMPLE_0/MRBUMP/search_c1_t54_r1_polyAla_mrbump/data/loc0_ALL_c1_t54_r1_polyAla/unmod/mr/phaser/refine/refmac_phaser_loc0_ALL_c1_t54_r1_polyAla_UNMOD.pdb'
p861
sS'SXRBUCC_pdbout'
p862
NsS'SHELXE_CC'
p863
F34.950000000000003
sS'SXRARP_final_Rfact'
p864
NsS'SXRBUCC_version'
p865
NsS'MOLREP_time'
p866
NsS'PHASER_logfile'
p867
S'/opt/ample.git/examples/toxd-example/AMPLE_0/MRBUMP/search_c1_t54_r1_polyAla_mrbump/data/loc0_ALL_c1_t54_r1_polyAla/unmod/mr/phaser/phaser_loc0_ALL_c1_t54_r1_polyAla_UNMOD.log'
p868
sg265
S'loc0_ALL_c1_t54_r1_polyAla_UNMOD'
p869
sS'BUCC_logfile'
p870
S'/opt/ample.git/examples/toxd-example/AMPLE_0/MRBUMP/search_c1_t54_r1_polyAla_mrbump/data/loc0_ALL_c1_t54_r1_polyAla/unmod/mr/phaser/build/buccaneer/buccaneer_run.log'
p871
sS'PHASER_mtzout'
p872
S'/opt/ample.git/examples/toxd-example/AMPLE_0/MRBUMP/search_c1_t54_r1_polyAla_mrbump/data/loc0_ALL_c1_t54_r1_polyAla/unmod/mr/phaser/phaser_loc0_ALL_c1_t54_r1_polyAla_UNMOD.1.mtz'
p873
sS'ARP_final_Rfact'
p874
NsS'SXRARP_mtzout'
p875
NsS'ARP_final_Rfree'
p876
NsS'PHASER_error'
p877
NsS'SXRBUCC_final_Rfree'
p878
NsS'ARP_mtzout'
p879
NsS'SHELXE_version'
p880
S'2016/3'
p881
sg279
S'PHASER'
p882
sS'PHASER_pdbout'
p883
S'/opt/ample.git/examples/toxd-example/AMPLE_0/MRBUMP/search_c1_t54_r1_polyAla_mrbump/data/loc0_ALL_c1_t54_r1_polyAla/unmod/mr/phaser/phaser_loc0_ALL_c1_t54_r1_polyAla_UNMOD.1.pdb'
p884
sS'Job_directory'
p885
S'/opt/ample.git/examples/toxd-example/AMPLE_0/MRBUMP/search_c1_t54_r1_polyAla_mrbump/data/loc0_ALL_c1_t54_r1_polyAla/unmod/mr/phaser'
p886
sS'BUCC_pdbout'
p887
S'/opt/ample.git/examples/toxd-example/AMPLE_0/MRBUMP/search_c1_t54_r1_polyAla_mrbump/data/loc0_ALL_c1_t54_r1_polyAla/unmod/mr/phaser/build/buccaneer/buccaneer_pipeline/refined.pdb'
p888
sS'SXRARP_final_Rfree'
p889
NsS'REFMAC_mtzout'
p890
S'/opt/ample.git/examples/toxd-example/AMPLE_0/MRBUMP/search_c1_t54_r1_polyAla_mrbump/data/loc0_ALL_c1_t54_r1_polyAla/unmod/mr/phaser/refine/refmac_phaser_HKLOUT_loc0_ALL_c1_t54_r1_polyAla_UNMOD.mtz'
p891
sS'SHELXE_mtzout'
p892
S'/opt/ample.git/examples/toxd-example/AMPLE_0/MRBUMP/search_c1_t54_r1_polyAla_mrbump/data/loc0_ALL_c1_t54_r1_polyAla/unmod/mr/phaser/build/shelxe/shelxe_phaser_loc0_ALL_c1_t54_r1_polyAla_UNMOD.mtz'
p893
sS'SHELXE_phsout'
p894
S'/opt/ample.git/examples/toxd-example/AMPLE_0/MRBUMP/search_c1_t54_r1_polyAla_mrbump/data/loc0_ALL_c1_t54_r1_polyAla/unmod/mr/phaser/build/shelxe/shelxe_phaser_loc0_ALL_c1_t54_r1_polyAla_UNMOD.phs'
p895
sa(dp896
S'BUCC_mtzout'
p897
S'/opt/ample.git/examples/toxd-example/AMPLE_0/MRBUMP/search_c1_t59_r1_polyAla_mrbump/data/loc0_ALL_c1_t59_r1_polyAla/unmod/mr/phaser/build/buccaneer/buccaneer_pipeline/refined.mtz'
p898
sS'SHELXE_logfile'
p899
S'/opt/ample.git/examples/toxd-example/AMPLE_0/MRBUMP/search_c1_t59_r1_polyAla_mrbump/data/loc0_ALL_c1_t59_r1_polyAla/unmod/mr/phaser/build/shelxe/shelxe_run.log'
p900
sS'Solution_Type'
p901
S'MARGINAL'
p902
sS'PHASER_killed'
p903
I00
sS'BUCC_final_Rfact'
p904
F1
sS'PHASER_time'
p905
F35.439999999999998
sg213
S'c1_t59_r1_polyAla'
p906
sS'SHELXE_wMPE'
p907
NsS'PHASER_TFZ'
p908
F7.7999999999999998
sS'SHELXE_os'
p909
NsS'PHASER_RFZ'
p910
F4
sS'BUCC_final_Rfree'
p911
F1
sS'MOLREP_score'
p912
NsS'SearchModel_name'
p913
S'loc0_ALL_c1_t59_r1_polyAla_UNMOD'
p914
sS'SXRARP_version'
p915
NsS'ARP_pdbout'
p916
NsS'PHASER_LLG'
p917
F47
sS'BUCC_version'
p918
S'1.6.4'
p919
sg228
F0.51539999999999997
sS'SXRBUCC_final_Rfact'
p920
NsS'SXRARP_pdbout'
p921
NsS'PHASER_version'
p922
S'2.7.17'
p923
sS'REFMAC_logfile'
p924
S'/opt/ample.git/examples/toxd-example/AMPLE_0/MRBUMP/search_c1_t59_r1_polyAla_mrbump/data/loc0_ALL_c1_t59_r1_polyAla/unmod/mr/phaser/refine/refmac_phaser_loc0_ALL_c1_t59_r1_polyAla_UNMOD.log'
p925
sS'Search_directory'
p926
S'/opt/ample.git/examples/toxd-example/AMPLE_0/MRBUMP/search_c1_t59_r1_polyAla_mrbump'
p927
sS'SHELXE_pdbout'
p928
S'/opt/ample.git/examples/toxd-example/AMPLE_0/MRBUMP/search_c1_t59_r1_polyAla_mrbump/data/loc0_ALL_c1_t59_r1_polyAla/unmod/mr/phaser/build/shelxe/shelxe_phaser_loc0_ALL_c1_t59_r1_polyAla_UNMOD.pdb'
p929
sS'ARP_logfile'
p930
NsS'MOLREP_logfile'
p931
NsS'REFMAC_version'
p932
S'5.8.0158'
p933
sS'SXRBUCC_mtzout'
p934
NsS'SHELXE_NC'
p935
I4
sS'SXRBUCC_logfile'
p936
NsS'STATUS'
p937
S'Finished'
p938
sS'ARP_version'
p939
NsS'SHELXE_MCL'
p940
I18
sS'SXRARP_logfile'
p941
NsS'SHELXE_ACL'
p942
I11
sg252
F0.4602
sS'MOLREP_pdbout'
p943
NsS'MOLREP_version'
p944
NsS'SHELXE_time'
p945
F680.92999999999995
sS'REFMAC_pdbout'
p946
S'/opt/ample.git/examples/toxd-example/AMPLE_0/MRBUMP/search_c1_t59_r1_polyAla_mrbump/data/loc0_ALL_c1_t59_r1_polyAla/unmod/mr/phaser/refine/refmac_phaser_loc0_ALL_c1_t59_r1_polyAla_UNMOD.pdb'
p947
sS'SXRBUCC_pdbout'
p948
NsS'SHELXE_CC'
p949
F32.039999999999999
sS'SXRARP_final_Rfact'
p950
NsS'SXRBUCC_version'
p951
NsS'MOLREP_time'
p952
NsS'PHASER_logfile'
p953
S'/opt/ample.git/examples/toxd-example/AMPLE_0/MRBUMP/search_c1_t59_r1_polyAla_mrbump/data/loc0_ALL_c1_t59_r1_polyAla/unmod/mr/phaser/phaser_loc0_ALL_c1_t59_r1_polyAla_UNMOD.log'
p954
sg265
S'loc0_ALL_c1_t59_r1_polyAla_UNMOD'
p955
sS'BUCC_logfile'
p956
S'/opt/ample.git/examples/toxd-example/AMPLE_0/MRBUMP/search_c1_t59_r1_polyAla_mrbump/data/loc0_ALL_c1_t59_r1_polyAla/unmod/mr/phaser/build/buccaneer/buccaneer_run.log'
p957
sS'PHASER_mtzout'
p958
S'/opt/ample.git/examples/toxd-example/AMPLE_0/MRBUMP/search_c1_t59_r1_polyAla_mrbump/data/loc0_ALL_c1_t59_r1_polyAla/unmod/mr/phaser/phaser_loc0_ALL_c1_t59_r1_polyAla_UNMOD.1.mtz'
p959
sS'ARP_final_Rfact'
p960
NsS'SXRARP_mtzout'
p961
NsS'ARP_final_Rfree'
p962
NsS'PHASER_error'
p963
NsS'SXRBUCC_final_Rfree'
p964
NsS'ARP_mtzout'
p965
NsS'SHELXE_version'
p966
S'2016/3'
p967
sg279
S'PHASER'
p968
sS'PHASER_pdbout'
p969
S'/opt/ample.git/examples/toxd-example/AMPLE_0/MRBUMP/search_c1_t59_r1_polyAla_mrbump/data/loc0_ALL_c1_t59_r1_polyAla/unmod/mr/phaser/phaser_loc0_ALL_c1_t59_r1_polyAla_UNMOD.1.pdb'
p970
sS'Job_directory'
p971
S'/opt/ample.git/examples/toxd-example/AMPLE_0/MRBUMP/search_c1_t59_r1_polyAla_mrbump/data/loc0_ALL_c1_t59_r1_polyAla/unmod/mr/phaser'
p972
sS'BUCC_pdbout'
p973
S'/opt/ample.git/examples/toxd-example/AMPLE_0/MRBUMP/search_c1_t59_r1_polyAla_mrbump/data/loc0_ALL_c1_t59_r1_polyAla/unmod/mr/phaser/build/buccaneer/buccaneer_pipeline/refined.pdb'
p974
sS'SXRARP_final_Rfree'
p975
NsS'REFMAC_mtzout'
p976
S'/opt/ample.git/examples/toxd-example/AMPLE_0/MRBUMP/search_c1_t59_r1_polyAla_mrbump/data/loc0_ALL_c1_t59_r1_polyAla/unmod/mr/phaser/refine/refmac_phaser_HKLOUT_loc0_ALL_c1_t59_r1_polyAla_UNMOD.mtz'
p977
sS'SHELXE_mtzout'
p978
S'/opt/ample.git/examples/toxd-example/AMPLE_0/MRBUMP/search_c1_t59_r1_polyAla_mrbump/data/loc0_ALL_c1_t59_r1_polyAla/unmod/mr/phaser/build/shelxe/shelxe_phaser_loc0_ALL_c1_t59_r1_polyAla_UNMOD.mtz'
p979
sS'SHELXE_phsout'
p980
S'/opt/ample.git/examples/toxd-example/AMPLE_0/MRBUMP/search_c1_t59_r1_polyAla_mrbump/data/loc0_ALL_c1_t59_r1_polyAla/unmod/mr/phaser/build/shelxe/shelxe_phaser_loc0_ALL_c1_t59_r1_polyAla_UNMOD.phs'
p981
sa(dp982
S'BUCC_mtzout'
p983
S'/opt/ample.git/examples/toxd-example/AMPLE_0/MRBUMP/search_c1_t59_r3_polyAla_mrbump/data/loc0_ALL_c1_t59_r3_polyAla/unmod/mr/phaser/build/buccaneer/buccaneer_pipeline/refined.mtz'
p984
sS'SHELXE_logfile'
p985
S'/opt/ample.git/examples/toxd-example/AMPLE_0/MRBUMP/search_c1_t59_r3_polyAla_mrbump/data/loc0_ALL_c1_t59_r3_polyAla/unmod/mr/phaser/build/shelxe/shelxe_run.log'
p986
sS'Solution_Type'
p987
S'MARGINAL'
p988
sS'PHASER_killed'
p989
I00
sS'BUCC_final_Rfact'
p990
F0.53939999999999999
sS'PHASER_time'
p991
F242.55000000000001
sg213
S'c1_t59_r3_polyAla'
p992
sS'SHELXE_wMPE'
p993
NsS'PHASER_TFZ'
p994
F6.2000000000000002
sS'SHELXE_os'
p995
NsS'PHASER_RFZ'
p996
F2.3999999999999999
sS'BUCC_final_Rfree'
p997
F0.53979999999999995
sS'MOLREP_score'
p998
NsS'SearchModel_name'
p999
S'loc0_ALL_c1_t59_r3_polyAla_UNMOD'
p1000
sS'SXRARP_version'
p1001
NsS'ARP_pdbout'
p1002
NsS'PHASER_LLG'
p1003
F24
sS'BUCC_version'
p1004
S'1.6.4'
p1005
sg228
F0.52049999999999996
sS'SXRBUCC_final_Rfact'
p1006
NsS'SXRARP_pdbout'
p1007
NsS'PHASER_version'
p1008
S'2.7.17'
p1009
sS'REFMAC_logfile'
p1010
S'/opt/ample.git/examples/toxd-example/AMPLE_0/MRBUMP/search_c1_t59_r3_polyAla_mrbump/data/loc0_ALL_c1_t59_r3_polyAla/unmod/mr/phaser/refine/refmac_phaser_loc0_ALL_c1_t59_r3_polyAla_UNMOD.log'
p1011
sS'Search_directory'
p1012
S'/opt/ample.git/examples/toxd-example/AMPLE_0/MRBUMP/search_c1_t59_r3_polyAla_mrbump'
p1013
sS'SHELXE_pdbout'
p1014
S'/opt/ample.git/examples/toxd-example/AMPLE_0/MRBUMP/search_c1_t59_r3_polyAla_mrbump/data/loc0_ALL_c1_t59_r3_polyAla/unmod/mr/phaser/build/shelxe/shelxe_phaser_loc0_ALL_c1_t59_r3_polyAla_UNMOD.pdb'
p1015
sS'ARP_logfile'
p1016
NsS'MOLREP_logfile'
p1017
NsS'REFMAC_version'
p1018
S'5.8.0158'
p1019
sS'SXRBUCC_mtzout'
p1020
NsS'SHELXE_NC'
p1021
I5
sS'SXRBUCC_logfile'
p1022
NsS'STATUS'
p1023
S'Finished'
p1024
sS'ARP_version'
p1025
NsS'SHELXE_MCL'
p1026
I14
sS'SXRARP_logfile'
p1027
NsS'SHELXE_ACL'
p1028
I9
sg252
F0.46610000000000001
sS'MOLREP_pdbout'
p1029
NsS'MOLREP_version'
p1030
NsS'SHELXE_time'
p1031
F625.86000000000001
sS'REFMAC_pdbout'
p1032
S'/opt/ample.git/examples/toxd-example/AMPLE_0/MRBUMP/search_c1_t59_r3_polyAla_mrbump/data/loc0_ALL_c1_t59_r3_polyAla/unmod/mr/phaser/refine/refmac_phaser_loc0_ALL_c1_t59_r3_polyAla_UNMOD.pdb'
p1033
sS'SXRBUCC_pdbout'
p1034
NsS'SHELXE_CC'
p1035
F31.420000000000002
sS'SXRARP_final_Rfact'
p1036
NsS'SXRBUCC_version'
p1037
NsS'MOLREP_time'
p1038
NsS'PHASER_logfile'
p1039
S'/opt/ample.git/examples/toxd-example/AMPLE_0/MRBUMP/search_c1_t59_r3_polyAla_mrbump/data/loc0_ALL_c1_t59_r3_polyAla/unmod/mr/phaser/phaser_loc0_ALL_c1_t59_r3_polyAla_UNMOD.log'
p1040
sg265
S'loc0_ALL_c1_t59_r3_polyAla_UNMOD'
p1041
sS'BUCC_logfile'
p1042
S'/opt/ample.git/examples/toxd-example/AMPLE_0/MRBUMP/search_c1_t59_r3_polyAla_mrbump/data/loc0_ALL_c1_t59_r3_polyAla/unmod/mr/phaser/build/buccaneer/buccaneer_run.log'
p1043
sS'PHASER_mtzout'
p1044
S'/opt/ample.git/examples/toxd-example/AMPLE_0/MRBUMP/search_c1_t59_r3_polyAla_mrbump/data/loc0_ALL_c1_t59_r3_polyAla/unmod/mr/phaser/phaser_loc0_ALL_c1_t59_r3_polyAla_UNMOD.1.mtz'
p1045
sS'ARP_final_Rfact'
p1046
NsS'SXRARP_mtzout'
p1047
NsS'ARP_final_Rfree'
p1048
NsS'PHASER_error'
p1049
NsS'SXRBUCC_final_Rfree'
p1050
NsS'ARP_mtzout'
p1051
NsS'SHELXE_version'
p1052
S'2016/3'
p1053
sg279
S'PHASER'
p1054
sS'PHASER_pdbout'
p1055
S'/opt/ample.git/examples/toxd-example/AMPLE_0/MRBUMP/search_c1_t59_r3_polyAla_mrbump/data/loc0_ALL_c1_t59_r3_polyAla/unmod/mr/phaser/phaser_loc0_ALL_c1_t59_r3_polyAla_UNMOD.1.pdb'
p1056
sS'Job_directory'
p1057
S'/opt/ample.git/examples/toxd-example/AMPLE_0/MRBUMP/search_c1_t59_r3_polyAla_mrbump/data/loc0_ALL_c1_t59_r3_polyAla/unmod/mr/phaser'
p1058
sS'BUCC_pdbout'
p1059
S'/opt/ample.git/examples/toxd-example/AMPLE_0/MRBUMP/search_c1_t59_r3_polyAla_mrbump/data/loc0_ALL_c1_t59_r3_polyAla/unmod/mr/phaser/build/buccaneer/buccaneer_pipeline/refined.pdb'
p1060
sS'SXRARP_final_Rfree'
p1061
NsS'REFMAC_mtzout'
p1062
S'/opt/ample.git/examples/toxd-example/AMPLE_0/MRBUMP/search_c1_t59_r3_polyAla_mrbump/data/loc0_ALL_c1_t59_r3_polyAla/unmod/mr/phaser/refine/refmac_phaser_HKLOUT_loc0_ALL_c1_t59_r3_polyAla_UNMOD.mtz'
p1063
sS'SHELXE_mtzout'
p1064
S'/opt/ample.git/examples/toxd-example/AMPLE_0/MRBUMP/search_c1_t59_r3_polyAla_mrbump/data/loc0_ALL_c1_t59_r3_polyAla/unmod/mr/phaser/build/shelxe/shelxe_phaser_loc0_ALL_c1_t59_r3_polyAla_UNMOD.mtz'
p1065
sS'SHELXE_phsout'
p1066
S'/opt/ample.git/examples/toxd-example/AMPLE_0/MRBUMP/search_c1_t59_r3_polyAla_mrbump/data/loc0_ALL_c1_t59_r3_polyAla/unmod/mr/phaser/build/shelxe/shelxe_phaser_loc0_ALL_c1_t59_r3_polyAla_UNMOD.phs'
p1067
sa(dp1068
S'BUCC_mtzout'
p1069
S'/opt/ample.git/examples/toxd-example/AMPLE_0/MRBUMP/search_c1_t49_r1_polyAla_mrbump/data/loc0_ALL_c1_t49_r1_polyAla/unmod/mr/phaser/build/buccaneer/buccaneer_pipeline/refined.mtz'
p1070
sS'SHELXE_logfile'
p1071
S'/opt/ample.git/examples/toxd-example/AMPLE_0/MRBUMP/search_c1_t49_r1_polyAla_mrbump/data/loc0_ALL_c1_t49_r1_polyAla/unmod/mr/phaser/build/shelxe/shelxe_run.log'
p1072
sS'Solution_Type'
p1073
S'MARGINAL'
p1074
sS'PHASER_killed'
p1075
I00
sS'BUCC_final_Rfact'
p1076
F1
sS'PHASER_time'
p1077
F97.560000000000002
sg213
S'c1_t49_r1_polyAla'
p1078
sS'SHELXE_wMPE'
p1079
NsS'PHASER_TFZ'
p1080
F6
sS'SHELXE_os'
p1081
NsS'PHASER_RFZ'
p1082
F3.2999999999999998
sS'BUCC_final_Rfree'
p1083
F1
sS'MOLREP_score'
p1084
NsS'SearchModel_name'
p1085
S'loc0_ALL_c1_t49_r1_polyAla_UNMOD'
p1086
sS'SXRARP_version'
p1087
NsS'ARP_pdbout'
p1088
NsS'PHASER_LLG'
p1089
F24
sS'BUCC_version'
p1090
S'1.6.4'
p1091
sg228
F0.55769999999999997
sS'SXRBUCC_final_Rfact'
p1092
NsS'SXRARP_pdbout'
p1093
NsS'PHASER_version'
p1094
S'2.7.17'
p1095
sS'REFMAC_logfile'
p1096
S'/opt/ample.git/examples/toxd-example/AMPLE_0/MRBUMP/search_c1_t49_r1_polyAla_mrbump/data/loc0_ALL_c1_t49_r1_polyAla/unmod/mr/phaser/refine/refmac_phaser_loc0_ALL_c1_t49_r1_polyAla_UNMOD.log'
p1097
sS'Search_directory'
p1098
S'/opt/ample.git/examples/toxd-example/AMPLE_0/MRBUMP/search_c1_t49_r1_polyAla_mrbump'
p1099
sS'SHELXE_pdbout'
p1100
S'/opt/ample.git/examples/toxd-example/AMPLE_0/MRBUMP/search_c1_t49_r1_polyAla_mrbump/data/loc0_ALL_c1_t49_r1_polyAla/unmod/mr/phaser/build/shelxe/shelxe_phaser_loc0_ALL_c1_t49_r1_polyAla_UNMOD.pdb'
p1101
sS'ARP_logfile'
p1102
NsS'MOLREP_logfile'
p1103
NsS'REFMAC_version'
p1104
S'5.8.0158'
p1105
sS'SXRBUCC_mtzout'
p1106
NsS'SHELXE_NC'
p1107
I3
sS'SXRBUCC_logfile'
p1108
NsS'STATUS'
p1109
S'Finished'
p1110
sS'ARP_version'
p1111
NsS'SHELXE_MCL'
p1112
I15
sS'SXRARP_logfile'
p1113
NsS'SHELXE_ACL'
p1114
I11
sg252
F0.52669999999999995
sS'MOLREP_pdbout'
p1115
NsS'MOLREP_version'
p1116
NsS'SHELXE_time'
p1117
F683.55999999999995
sS'REFMAC_pdbout'
p1118
S'/opt/ample.git/examples/toxd-example/AMPLE_0/MRBUMP/search_c1_t49_r1_polyAla_mrbump/data/loc0_ALL_c1_t49_r1_polyAla/unmod/mr/phaser/refine/refmac_phaser_loc0_ALL_c1_t49_r1_polyAla_UNMOD.pdb'
p1119
sS'SXRBUCC_pdbout'
p1120
NsS'SHELXE_CC'
p1121
F24.5
sS'SXRARP_final_Rfact'
p1122
NsS'SXRBUCC_version'
p1123
NsS'MOLREP_time'
p1124
NsS'PHASER_logfile'
p1125
S'/opt/ample.git/examples/toxd-example/AMPLE_0/MRBUMP/search_c1_t49_r1_polyAla_mrbump/data/loc0_ALL_c1_t49_r1_polyAla/unmod/mr/phaser/phaser_loc0_ALL_c1_t49_r1_polyAla_UNMOD.log'
p1126
sg265
S'loc0_ALL_c1_t49_r1_polyAla_UNMOD'
p1127
sS'BUCC_logfile'
p1128
S'/opt/ample.git/examples/toxd-example/AMPLE_0/MRBUMP/search_c1_t49_r1_polyAla_mrbump/data/loc0_ALL_c1_t49_r1_polyAla/unmod/mr/phaser/build/buccaneer/buccaneer_run.log'
p1129
sS'PHASER_mtzout'
p1130
S'/opt/ample.git/examples/toxd-example/AMPLE_0/MRBUMP/search_c1_t49_r1_polyAla_mrbump/data/loc0_ALL_c1_t49_r1_polyAla/unmod/mr/phaser/phaser_loc0_ALL_c1_t49_r1_polyAla_UNMOD.1.mtz'
p1131
sS'ARP_final_Rfact'
p1132
NsS'SXRARP_mtzout'
p1133
NsS'ARP_final_Rfree'
p1134
NsS'PHASER_error'
p1135
NsS'SXRBUCC_final_Rfree'
p1136
NsS'ARP_mtzout'
p1137
NsS'SHELXE_version'
p1138
S'2016/3'
p1139
sg279
S'PHASER'
p1140
sS'PHASER_pdbout'
p1141
S'/opt/ample.git/examples/toxd-example/AMPLE_0/MRBUMP/search_c1_t49_r1_polyAla_mrbump/data/loc0_ALL_c1_t49_r1_polyAla/unmod/mr/phaser/phaser_loc0_ALL_c1_t49_r1_polyAla_UNMOD.1.pdb'
p1142
sS'Job_directory'
p1143
S'/opt/ample.git/examples/toxd-example/AMPLE_0/MRBUMP/search_c1_t49_r1_polyAla_mrbump/data/loc0_ALL_c1_t49_r1_polyAla/unmod/mr/phaser'
p1144
sS'BUCC_pdbout'
p1145
S'/opt/ample.git/examples/toxd-example/AMPLE_0/MRBUMP/search_c1_t49_r1_polyAla_mrbump/data/loc0_ALL_c1_t49_r1_polyAla/unmod/mr/phaser/build/buccaneer/buccaneer_pipeline/refined.pdb'
p1146
sS'SXRARP_final_Rfree'
p1147
NsS'REFMAC_mtzout'
p1148
S'/opt/ample.git/examples/toxd-example/AMPLE_0/MRBUMP/search_c1_t49_r1_polyAla_mrbump/data/loc0_ALL_c1_t49_r1_polyAla/unmod/mr/phaser/refine/refmac_phaser_HKLOUT_loc0_ALL_c1_t49_r1_polyAla_UNMOD.mtz'
p1149
sS'SHELXE_mtzout'
p1150
S'/opt/ample.git/examples/toxd-example/AMPLE_0/MRBUMP/search_c1_t49_r1_polyAla_mrbump/data/loc0_ALL_c1_t49_r1_polyAla/unmod/mr/phaser/build/shelxe/shelxe_phaser_loc0_ALL_c1_t49_r1_polyAla_UNMOD.mtz'
p1151
sS'SHELXE_phsout'
p1152
S'/opt/ample.git/examples/toxd-example/AMPLE_0/MRBUMP/search_c1_t49_r1_polyAla_mrbump/data/loc0_ALL_c1_t49_r1_polyAla/unmod/mr/phaser/build/shelxe/shelxe_phaser_loc0_ALL_c1_t49_r1_polyAla_UNMOD.phs'
p1153
sa(dp1154
S'BUCC_mtzout'
p1155
S'/opt/ample.git/examples/toxd-example/AMPLE_0/MRBUMP/search_c1_t19_r1_polyAla_mrbump/data/loc0_ALL_c1_t19_r1_polyAla/unmod/mr/phaser/build/buccaneer/buccaneer_pipeline/refined.mtz'
p1156
sS'SHELXE_logfile'
p1157
S'/opt/ample.git/examples/toxd-example/AMPLE_0/MRBUMP/search_c1_t19_r1_polyAla_mrbump/data/loc0_ALL_c1_t19_r1_polyAla/unmod/mr/phaser/build/shelxe/shelxe_run.log'
p1158
sS'Solution_Type'
p1159
S'POOR'
p1160
sS'PHASER_killed'
p1161
I00
sS'BUCC_final_Rfact'
p1162
F1
sS'PHASER_time'
p1163
F55.689999999999998
sg213
S'c1_t19_r1_polyAla'
p1164
sS'SHELXE_wMPE'
p1165
NsS'PHASER_TFZ'
p1166
F6.2000000000000002
sS'SHELXE_os'
p1167
NsS'PHASER_RFZ'
p1168
F2.7999999999999998
sS'BUCC_final_Rfree'
p1169
F1
sS'MOLREP_score'
p1170
NsS'SearchModel_name'
p1171
S'loc0_ALL_c1_t19_r1_polyAla_UNMOD'
p1172
sS'SXRARP_version'
p1173
NsS'ARP_pdbout'
p1174
NsS'PHASER_LLG'
p1175
F28
sS'BUCC_version'
p1176
S'1.6.4'
p1177
sg228
F0.58179999999999998
sS'SXRBUCC_final_Rfact'
p1178
NsS'SXRARP_pdbout'
p1179
NsS'PHASER_version'
p1180
S'2.7.17'
p1181
sS'REFMAC_logfile'
p1182
S'/opt/ample.git/examples/toxd-example/AMPLE_0/MRBUMP/search_c1_t19_r1_polyAla_mrbump/data/loc0_ALL_c1_t19_r1_polyAla/unmod/mr/phaser/refine/refmac_phaser_loc0_ALL_c1_t19_r1_polyAla_UNMOD.log'
p1183
sS'Search_directory'
p1184
S'/opt/ample.git/examples/toxd-example/AMPLE_0/MRBUMP/search_c1_t19_r1_polyAla_mrbump'
p1185
sS'SHELXE_pdbout'
p1186
S'/opt/ample.git/examples/toxd-example/AMPLE_0/MRBUMP/search_c1_t19_r1_polyAla_mrbump/data/loc0_ALL_c1_t19_r1_polyAla/unmod/mr/phaser/build/shelxe/shelxe_phaser_loc0_ALL_c1_t19_r1_polyAla_UNMOD.pdb'
p1187
sS'ARP_logfile'
p1188
NsS'MOLREP_logfile'
p1189
NsS'REFMAC_version'
p1190
S'5.8.0158'
p1191
sS'SXRBUCC_mtzout'
p1192
NsS'SHELXE_NC'
p1193
I4
sS'SXRBUCC_logfile'
p1194
NsS'STATUS'
p1195
S'Finished'
p1196
sS'ARP_version'
p1197
NsS'SHELXE_MCL'
p1198
I8
sS'SXRARP_logfile'
p1199
NsS'SHELXE_ACL'
p1200
I6
sg252
F0.58799999999999997
sS'MOLREP_pdbout'
p1201
NsS'MOLREP_version'
p1202
NsS'SHELXE_time'
p1203
F816.59000000000003
sS'REFMAC_pdbout'
p1204
S'/opt/ample.git/examples/toxd-example/AMPLE_0/MRBUMP/search_c1_t19_r1_polyAla_mrbump/data/loc0_ALL_c1_t19_r1_polyAla/unmod/mr/phaser/refine/refmac_phaser_loc0_ALL_c1_t19_r1_polyAla_UNMOD.pdb'
p1205
sS'SXRBUCC_pdbout'
p1206
NsS'SHELXE_CC'
p1207
F16.449999999999999
sS'SXRARP_final_Rfact'
p1208
NsS'SXRBUCC_version'
p1209
NsS'MOLREP_time'
p1210
NsS'PHASER_logfile'
p1211
S'/opt/ample.git/examples/toxd-example/AMPLE_0/MRBUMP/search_c1_t19_r1_polyAla_mrbump/data/loc0_ALL_c1_t19_r1_polyAla/unmod/mr/phaser/phaser_loc0_ALL_c1_t19_r1_polyAla_UNMOD.log'
p1212
sg265
S'loc0_ALL_c1_t19_r1_polyAla_UNMOD'
p1213
sS'BUCC_logfile'
p1214
S'/opt/ample.git/examples/toxd-example/AMPLE_0/MRBUMP/search_c1_t19_r1_polyAla_mrbump/data/loc0_ALL_c1_t19_r1_polyAla/unmod/mr/phaser/build/buccaneer/buccaneer_run.log'
p1215
sS'PHASER_mtzout'
p1216
S'/opt/ample.git/examples/toxd-example/AMPLE_0/MRBUMP/search_c1_t19_r1_polyAla_mrbump/data/loc0_ALL_c1_t19_r1_polyAla/unmod/mr/phaser/phaser_loc0_ALL_c1_t19_r1_polyAla_UNMOD.1.mtz'
p1217
sS'ARP_final_Rfact'
p1218
NsS'SXRARP_mtzout'
p1219
NsS'ARP_final_Rfree'
p1220
NsS'PHASER_error'
p1221
NsS'SXRBUCC_final_Rfree'
p1222
NsS'ARP_mtzout'
p1223
NsS'SHELXE_version'
p1224
S'2016/3'
p1225
sg279
S'PHASER'
p1226
sS'PHASER_pdbout'
p1227
S'/opt/ample.git/examples/toxd-example/AMPLE_0/MRBUMP/search_c1_t19_r1_polyAla_mrbump/data/loc0_ALL_c1_t19_r1_polyAla/unmod/mr/phaser/phaser_loc0_ALL_c1_t19_r1_polyAla_UNMOD.1.pdb'
p1228
sS'Job_directory'
p1229
S'/opt/ample.git/examples/toxd-example/AMPLE_0/MRBUMP/search_c1_t19_r1_polyAla_mrbump/data/loc0_ALL_c1_t19_r1_polyAla/unmod/mr/phaser'
p1230
sS'BUCC_pdbout'
p1231
S'/opt/ample.git/examples/toxd-example/AMPLE_0/MRBUMP/search_c1_t19_r1_polyAla_mrbump/data/loc0_ALL_c1_t19_r1_polyAla/unmod/mr/phaser/build/buccaneer/buccaneer_pipeline/refined.pdb'
p1232
sS'SXRARP_final_Rfree'
p1233
NsS'REFMAC_mtzout'
p1234
S'/opt/ample.git/examples/toxd-example/AMPLE_0/MRBUMP/search_c1_t19_r1_polyAla_mrbump/data/loc0_ALL_c1_t19_r1_polyAla/unmod/mr/phaser/refine/refmac_phaser_HKLOUT_loc0_ALL_c1_t19_r1_polyAla_UNMOD.mtz'
p1235
sS'SHELXE_mtzout'
p1236
S'/opt/ample.git/examples/toxd-example/AMPLE_0/MRBUMP/search_c1_t19_r1_polyAla_mrbump/data/loc0_ALL_c1_t19_r1_polyAla/unmod/mr/phaser/build/shelxe/shelxe_phaser_loc0_ALL_c1_t19_r1_polyAla_UNMOD.mtz'
p1237
sS'SHELXE_phsout'
p1238
S'/opt/ample.git/examples/toxd-example/AMPLE_0/MRBUMP/search_c1_t19_r1_polyAla_mrbump/data/loc0_ALL_c1_t19_r1_polyAla/unmod/mr/phaser/build/shelxe/shelxe_phaser_loc0_ALL_c1_t19_r1_polyAla_UNMOD.phs'
p1239
sa(dp1240
S'BUCC_mtzout'
p1241
S'/opt/ample.git/examples/toxd-example/AMPLE_0/MRBUMP/search_c1_t44_r3_polyAla_mrbump/data/loc0_ALL_c1_t44_r3_polyAla/unmod/mr/phaser/build/buccaneer/buccaneer_pipeline/refined.mtz'
p1242
sS'SHELXE_logfile'
p1243
S'/opt/ample.git/examples/toxd-example/AMPLE_0/MRBUMP/search_c1_t44_r3_polyAla_mrbump/data/loc0_ALL_c1_t44_r3_polyAla/unmod/mr/phaser/build/shelxe/shelxe_run.log'
p1244
sS'Solution_Type'
p1245
S'POOR'
p1246
sS'PHASER_killed'
p1247
I00
sS'BUCC_final_Rfact'
p1248
F0.52829999999999999
sS'PHASER_time'
p1249
F166.84
sg213
S'c1_t44_r3_polyAla'
p1250
sS'SHELXE_wMPE'
p1251
NsS'PHASER_TFZ'
p1252
F5
sS'SHELXE_os'
p1253
NsS'PHASER_RFZ'
p1254
F3.6000000000000001
sS'BUCC_final_Rfree'
p1255
F0.57230000000000003
sS'MOLREP_score'
p1256
NsS'SearchModel_name'
p1257
S'loc0_ALL_c1_t44_r3_polyAla_UNMOD'
p1258
sS'SXRARP_version'
p1259
NsS'ARP_pdbout'
p1260
NsS'PHASER_LLG'
p1261
F25
sS'BUCC_version'
p1262
S'1.6.4'
p1263
sg228
F0.57440000000000002
sS'SXRBUCC_final_Rfact'
p1264
NsS'SXRARP_pdbout'
p1265
NsS'PHASER_version'
p1266
S'2.7.17'
p1267
sS'REFMAC_logfile'
p1268
S'/opt/ample.git/examples/toxd-example/AMPLE_0/MRBUMP/search_c1_t44_r3_polyAla_mrbump/data/loc0_ALL_c1_t44_r3_polyAla/unmod/mr/phaser/refine/refmac_phaser_loc0_ALL_c1_t44_r3_polyAla_UNMOD.log'
p1269
sS'Search_directory'
p1270
S'/opt/ample.git/examples/toxd-example/AMPLE_0/MRBUMP/search_c1_t44_r3_polyAla_mrbump'
p1271
sS'SHELXE_pdbout'
p1272
S'/opt/ample.git/examples/toxd-example/AMPLE_0/MRBUMP/search_c1_t44_r3_polyAla_mrbump/data/loc0_ALL_c1_t44_r3_polyAla/unmod/mr/phaser/build/shelxe/shelxe_phaser_loc0_ALL_c1_t44_r3_polyAla_UNMOD.pdb'
p1273
sS'ARP_logfile'
p1274
NsS'MOLREP_logfile'
p1275
NsS'REFMAC_version'
p1276
S'5.8.0158'
p1277
sS'SXRBUCC_mtzout'
p1278
NsS'SHELXE_NC'
p1279
I3
sS'SXRBUCC_logfile'
p1280
NsS'STATUS'
p1281
S'Finished'
p1282
sS'ARP_version'
p1283
NsS'SHELXE_MCL'
p1284
I9
sS'SXRARP_logfile'
p1285
NsS'SHELXE_ACL'
p1286
I7
sg252
F0.58640000000000003
sS'MOLREP_pdbout'
p1287
NsS'MOLREP_version'
p1288
NsS'SHELXE_time'
p1289
F777.39999999999998
sS'REFMAC_pdbout'
p1290
S'/opt/ample.git/examples/toxd-example/AMPLE_0/MRBUMP/search_c1_t44_r3_polyAla_mrbump/data/loc0_ALL_c1_t44_r3_polyAla/unmod/mr/phaser/refine/refmac_phaser_loc0_ALL_c1_t44_r3_polyAla_UNMOD.pdb'
p1291
sS'SXRBUCC_pdbout'
p1292
NsS'SHELXE_CC'
p1293
F15.199999999999999
sS'SXRARP_final_Rfact'
p1294
NsS'SXRBUCC_version'
p1295
NsS'MOLREP_time'
p1296
NsS'PHASER_logfile'
p1297
S'/opt/ample.git/examples/toxd-example/AMPLE_0/MRBUMP/search_c1_t44_r3_polyAla_mrbump/data/loc0_ALL_c1_t44_r3_polyAla/unmod/mr/phaser/phaser_loc0_ALL_c1_t44_r3_polyAla_UNMOD.log'
p1298
sg265
S'loc0_ALL_c1_t44_r3_polyAla_UNMOD'
p1299
sS'BUCC_logfile'
p1300
S'/opt/ample.git/examples/toxd-example/AMPLE_0/MRBUMP/search_c1_t44_r3_polyAla_mrbump/data/loc0_ALL_c1_t44_r3_polyAla/unmod/mr/phaser/build/buccaneer/buccaneer_run.log'
p1301
sS'PHASER_mtzout'
p1302
S'/opt/ample.git/examples/toxd-example/AMPLE_0/MRBUMP/search_c1_t44_r3_polyAla_mrbump/data/loc0_ALL_c1_t44_r3_polyAla/unmod/mr/phaser/phaser_loc0_ALL_c1_t44_r3_polyAla_UNMOD.1.mtz'
p1303
sS'ARP_final_Rfact'
p1304
NsS'SXRARP_mtzout'
p1305
NsS'ARP_final_Rfree'
p1306
NsS'PHASER_error'
p1307
NsS'SXRBUCC_final_Rfree'
p1308
NsS'ARP_mtzout'
p1309
NsS'SHELXE_version'
p1310
S'2016/3'
p1311
sg279
S'PHASER'
p1312
sS'PHASER_pdbout'
p1313
S'/opt/ample.git/examples/toxd-example/AMPLE_0/MRBUMP/search_c1_t44_r3_polyAla_mrbump/data/loc0_ALL_c1_t44_r3_polyAla/unmod/mr/phaser/phaser_loc0_ALL_c1_t44_r3_polyAla_UNMOD.1.pdb'
p1314
sS'Job_directory'
p1315
S'/opt/ample.git/examples/toxd-example/AMPLE_0/MRBUMP/search_c1_t44_r3_polyAla_mrbump/data/loc0_ALL_c1_t44_r3_polyAla/unmod/mr/phaser'
p1316
sS'BUCC_pdbout'
p1317
S'/opt/ample.git/examples/toxd-example/AMPLE_0/MRBUMP/search_c1_t44_r3_polyAla_mrbump/data/loc0_ALL_c1_t44_r3_polyAla/unmod/mr/phaser/build/buccaneer/buccaneer_pipeline/refined.pdb'
p1318
sS'SXRARP_final_Rfree'
p1319
NsS'REFMAC_mtzout'
p1320
S'/opt/ample.git/examples/toxd-example/AMPLE_0/MRBUMP/search_c1_t44_r3_polyAla_mrbump/data/loc0_ALL_c1_t44_r3_polyAla/unmod/mr/phaser/refine/refmac_phaser_HKLOUT_loc0_ALL_c1_t44_r3_polyAla_UNMOD.mtz'
p1321
sS'SHELXE_mtzout'
p1322
S'/opt/ample.git/examples/toxd-example/AMPLE_0/MRBUMP/search_c1_t44_r3_polyAla_mrbump/data/loc0_ALL_c1_t44_r3_polyAla/unmod/mr/phaser/build/shelxe/shelxe_phaser_loc0_ALL_c1_t44_r3_polyAla_UNMOD.mtz'
p1323
sS'SHELXE_phsout'
p1324
S'/opt/ample.git/examples/toxd-example/AMPLE_0/MRBUMP/search_c1_t44_r3_polyAla_mrbump/data/loc0_ALL_c1_t44_r3_polyAla/unmod/mr/phaser/build/shelxe/shelxe_phaser_loc0_ALL_c1_t44_r3_polyAla_UNMOD.phs'
p1325
sa(dp1326
S'BUCC_mtzout'
p1327
S'/opt/ample.git/examples/toxd-example/AMPLE_0/MRBUMP/search_c1_t39_r3_polyAla_mrbump/data/loc0_ALL_c1_t39_r3_polyAla/unmod/mr/phaser/build/buccaneer/buccaneer_pipeline/refined.mtz'
p1328
sS'SHELXE_logfile'
p1329
S'/opt/ample.git/examples/toxd-example/AMPLE_0/MRBUMP/search_c1_t39_r3_polyAla_mrbump/data/loc0_ALL_c1_t39_r3_polyAla/unmod/mr/phaser/build/shelxe/shelxe_run.log'
p1330
sS'Solution_Type'
p1331
S'MARGINAL'
p1332
sS'PHASER_killed'
p1333
I00
sS'BUCC_final_Rfact'
p1334
F1
sS'PHASER_time'
p1335
F96.299999999999997
sg213
S'c1_t39_r3_polyAla'
p1336
sS'SHELXE_wMPE'
p1337
NsS'PHASER_TFZ'
p1338
F5.7000000000000002
sS'SHELXE_os'
p1339
NsS'PHASER_RFZ'
p1340
F3.5
sS'BUCC_final_Rfree'
p1341
F1
sS'MOLREP_score'
p1342
NsS'SearchModel_name'
p1343
S'loc0_ALL_c1_t39_r3_polyAla_UNMOD'
p1344
sS'SXRARP_version'
p1345
NsS'ARP_pdbout'
p1346
NsS'PHASER_LLG'
p1347
F26
sS'BUCC_version'
p1348
S'1.6.4'
p1349
sg228
F0.55900000000000005
sS'SXRBUCC_final_Rfact'
p1350
NsS'SXRARP_pdbout'
p1351
NsS'PHASER_version'
p1352
S'2.7.17'
p1353
sS'REFMAC_logfile'
p1354
S'/opt/ample.git/examples/toxd-example/AMPLE_0/MRBUMP/search_c1_t39_r3_polyAla_mrbump/data/loc0_ALL_c1_t39_r3_polyAla/unmod/mr/phaser/refine/refmac_phaser_loc0_ALL_c1_t39_r3_polyAla_UNMOD.log'
p1355
sS'Search_directory'
p1356
S'/opt/ample.git/examples/toxd-example/AMPLE_0/MRBUMP/search_c1_t39_r3_polyAla_mrbump'
p1357
sS'SHELXE_pdbout'
p1358
S'/opt/ample.git/examples/toxd-example/AMPLE_0/MRBUMP/search_c1_t39_r3_polyAla_mrbump/data/loc0_ALL_c1_t39_r3_polyAla/unmod/mr/phaser/build/shelxe/shelxe_phaser_loc0_ALL_c1_t39_r3_polyAla_UNMOD.pdb'
p1359
sS'ARP_logfile'
p1360
NsS'MOLREP_logfile'
p1361
NsS'REFMAC_version'
p1362
S'5.8.0158'
p1363
sS'SXRBUCC_mtzout'
p1364
NsS'SHELXE_NC'
p1365
I4
sS'SXRBUCC_logfile'
p1366
NsS'STATUS'
p1367
S'Finished'
p1368
sS'ARP_version'
p1369
NsS'SHELXE_MCL'
p1370
I10
sS'SXRARP_logfile'
p1371
NsS'SHELXE_ACL'
p1372
I7
sg252
F0.51929999999999998
sS'MOLREP_pdbout'
p1373
NsS'MOLREP_version'
p1374
NsS'SHELXE_time'
p1375
F764.66999999999996
sS'REFMAC_pdbout'
p1376
S'/opt/ample.git/examples/toxd-example/AMPLE_0/MRBUMP/search_c1_t39_r3_polyAla_mrbump/data/loc0_ALL_c1_t39_r3_polyAla/unmod/mr/phaser/refine/refmac_phaser_loc0_ALL_c1_t39_r3_polyAla_UNMOD.pdb'
p1377
sS'SXRBUCC_pdbout'
p1378
NsS'SHELXE_CC'
p1379
F14.75
sS'SXRARP_final_Rfact'
p1380
NsS'SXRBUCC_version'
p1381
NsS'MOLREP_time'
p1382
NsS'PHASER_logfile'
p1383
S'/opt/ample.git/examples/toxd-example/AMPLE_0/MRBUMP/search_c1_t39_r3_polyAla_mrbump/data/loc0_ALL_c1_t39_r3_polyAla/unmod/mr/phaser/phaser_loc0_ALL_c1_t39_r3_polyAla_UNMOD.log'
p1384
sg265
S'loc0_ALL_c1_t39_r3_polyAla_UNMOD'
p1385
sS'BUCC_logfile'
p1386
S'/opt/ample.git/examples/toxd-example/AMPLE_0/MRBUMP/search_c1_t39_r3_polyAla_mrbump/data/loc0_ALL_c1_t39_r3_polyAla/unmod/mr/phaser/build/buccaneer/buccaneer_run.log'
p1387
sS'PHASER_mtzout'
p1388
S'/opt/ample.git/examples/toxd-example/AMPLE_0/MRBUMP/search_c1_t39_r3_polyAla_mrbump/data/loc0_ALL_c1_t39_r3_polyAla/unmod/mr/phaser/phaser_loc0_ALL_c1_t39_r3_polyAla_UNMOD.1.mtz'
p1389
sS'ARP_final_Rfact'
p1390
NsS'SXRARP_mtzout'
p1391
NsS'ARP_final_Rfree'
p1392
NsS'PHASER_error'
p1393
NsS'SXRBUCC_final_Rfree'
p1394
NsS'ARP_mtzout'
p1395
NsS'SHELXE_version'
p1396
S'2016/3'
p1397
sg279
S'PHASER'
p1398
sS'PHASER_pdbout'
p1399
S'/opt/ample.git/examples/toxd-example/AMPLE_0/MRBUMP/search_c1_t39_r3_polyAla_mrbump/data/loc0_ALL_c1_t39_r3_polyAla/unmod/mr/phaser/phaser_loc0_ALL_c1_t39_r3_polyAla_UNMOD.1.pdb'
p1400
sS'Job_directory'
p1401
S'/opt/ample.git/examples/toxd-example/AMPLE_0/MRBUMP/search_c1_t39_r3_polyAla_mrbump/data/loc0_ALL_c1_t39_r3_polyAla/unmod/mr/phaser'
p1402
sS'BUCC_pdbout'
p1403
S'/opt/ample.git/examples/toxd-example/AMPLE_0/MRBUMP/search_c1_t39_r3_polyAla_mrbump/data/loc0_ALL_c1_t39_r3_polyAla/unmod/mr/phaser/build/buccaneer/buccaneer_pipeline/refined.pdb'
p1404
sS'SXRARP_final_Rfree'
p1405
NsS'REFMAC_mtzout'
p1406
S'/opt/ample.git/examples/toxd-example/AMPLE_0/MRBUMP/search_c1_t39_r3_polyAla_mrbump/data/loc0_ALL_c1_t39_r3_polyAla/unmod/mr/phaser/refine/refmac_phaser_HKLOUT_loc0_ALL_c1_t39_r3_polyAla_UNMOD.mtz'
p1407
sS'SHELXE_mtzout'
p1408
S'/opt/ample.git/examples/toxd-example/AMPLE_0/MRBUMP/search_c1_t39_r3_polyAla_mrbump/data/loc0_ALL_c1_t39_r3_polyAla/unmod/mr/phaser/build/shelxe/shelxe_phaser_loc0_ALL_c1_t39_r3_polyAla_UNMOD.mtz'
p1409
sS'SHELXE_phsout'
p1410
S'/opt/ample.git/examples/toxd-example/AMPLE_0/MRBUMP/search_c1_t39_r3_polyAla_mrbump/data/loc0_ALL_c1_t39_r3_polyAla/unmod/mr/phaser/build/shelxe/shelxe_phaser_loc0_ALL_c1_t39_r3_polyAla_UNMOD.phs'
p1411
sa(dp1412
S'BUCC_mtzout'
p1413
S'/opt/ample.git/examples/toxd-example/AMPLE_0/MRBUMP/search_c1_t39_r1_polyAla_mrbump/data/loc0_ALL_c1_t39_r1_polyAla/unmod/mr/phaser/build/buccaneer/buccaneer_pipeline/refined.mtz'
p1414
sS'SHELXE_logfile'
p1415
S'/opt/ample.git/examples/toxd-example/AMPLE_0/MRBUMP/search_c1_t39_r1_polyAla_mrbump/data/loc0_ALL_c1_t39_r1_polyAla/unmod/mr/phaser/build/shelxe/shelxe_run.log'
p1416
sS'Solution_Type'
p1417
S'POOR'
p1418
sS'PHASER_killed'
p1419
I00
sS'BUCC_final_Rfact'
p1420
F1
sS'PHASER_time'
p1421
F146.90000000000001
sg213
S'c1_t39_r1_polyAla'
p1422
sS'SHELXE_wMPE'
p1423
NsS'PHASER_TFZ'
p1424
F6.4000000000000004
sS'SHELXE_os'
p1425
NsS'PHASER_RFZ'
p1426
F2.5
sS'BUCC_final_Rfree'
p1427
F1
sS'MOLREP_score'
p1428
NsS'SearchModel_name'
p1429
S'loc0_ALL_c1_t39_r1_polyAla_UNMOD'
p1430
sS'SXRARP_version'
p1431
NsS'ARP_pdbout'
p1432
NsS'PHASER_LLG'
p1433
F24
sS'BUCC_version'
p1434
S'1.6.4'
p1435
sg228
F0.56059999999999999
sS'SXRBUCC_final_Rfact'
p1436
NsS'SXRARP_pdbout'
p1437
NsS'PHASER_version'
p1438
S'2.7.17'
p1439
sS'REFMAC_logfile'
p1440
S'/opt/ample.git/examples/toxd-example/AMPLE_0/MRBUMP/search_c1_t39_r1_polyAla_mrbump/data/loc0_ALL_c1_t39_r1_polyAla/unmod/mr/phaser/refine/refmac_phaser_loc0_ALL_c1_t39_r1_polyAla_UNMOD.log'
p1441
sS'Search_directory'
p1442
S'/opt/ample.git/examples/toxd-example/AMPLE_0/MRBUMP/search_c1_t39_r1_polyAla_mrbump'
p1443
sS'SHELXE_pdbout'
p1444
S'/opt/ample.git/examples/toxd-example/AMPLE_0/MRBUMP/search_c1_t39_r1_polyAla_mrbump/data/loc0_ALL_c1_t39_r1_polyAla/unmod/mr/phaser/build/shelxe/shelxe_phaser_loc0_ALL_c1_t39_r1_polyAla_UNMOD.pdb'
p1445
sS'ARP_logfile'
p1446
NsS'MOLREP_logfile'
p1447
NsS'REFMAC_version'
p1448
S'5.8.0158'
p1449
sS'SXRBUCC_mtzout'
p1450
NsS'SHELXE_NC'
p1451
I3
sS'SXRBUCC_logfile'
p1452
NsS'STATUS'
p1453
S'Finished'
p1454
sS'ARP_version'
p1455
NsS'SHELXE_MCL'
p1456
I9
sS'SXRARP_logfile'
p1457
NsS'SHELXE_ACL'
p1458
I7
sg252
F0.56159999999999999
sS'MOLREP_pdbout'
p1459
NsS'MOLREP_version'
p1460
NsS'SHELXE_time'
p1461
F735.01999999999998
sS'REFMAC_pdbout'
p1462
S'/opt/ample.git/examples/toxd-example/AMPLE_0/MRBUMP/search_c1_t39_r1_polyAla_mrbump/data/loc0_ALL_c1_t39_r1_polyAla/unmod/mr/phaser/refine/refmac_phaser_loc0_ALL_c1_t39_r1_polyAla_UNMOD.pdb'
p1463
sS'SXRBUCC_pdbout'
p1464
NsS'SHELXE_CC'
p1465
F14.67
sS'SXRARP_final_Rfact'
p1466
NsS'SXRBUCC_version'
p1467
NsS'MOLREP_time'
p1468
NsS'PHASER_logfile'
p1469
S'/opt/ample.git/examples/toxd-example/AMPLE_0/MRBUMP/search_c1_t39_r1_polyAla_mrbump/data/loc0_ALL_c1_t39_r1_polyAla/unmod/mr/phaser/phaser_loc0_ALL_c1_t39_r1_polyAla_UNMOD.log'
p1470
sg265
S'loc0_ALL_c1_t39_r1_polyAla_UNMOD'
p1471
sS'BUCC_logfile'
p1472
S'/opt/ample.git/examples/toxd-example/AMPLE_0/MRBUMP/search_c1_t39_r1_polyAla_mrbump/data/loc0_ALL_c1_t39_r1_polyAla/unmod/mr/phaser/build/buccaneer/buccaneer_run.log'
p1473
sS'PHASER_mtzout'
p1474
S'/opt/ample.git/examples/toxd-example/AMPLE_0/MRBUMP/search_c1_t39_r1_polyAla_mrbump/data/loc0_ALL_c1_t39_r1_polyAla/unmod/mr/phaser/phaser_loc0_ALL_c1_t39_r1_polyAla_UNMOD.1.mtz'
p1475
sS'ARP_final_Rfact'
p1476
NsS'SXRARP_mtzout'
p1477
NsS'ARP_final_Rfree'
p1478
NsS'PHASER_error'
p1479
NsS'SXRBUCC_final_Rfree'
p1480
NsS'ARP_mtzout'
p1481
NsS'SHELXE_version'
p1482
S'2016/3'
p1483
sg279
S'PHASER'
p1484
sS'PHASER_pdbout'
p1485
S'/opt/ample.git/examples/toxd-example/AMPLE_0/MRBUMP/search_c1_t39_r1_polyAla_mrbump/data/loc0_ALL_c1_t39_r1_polyAla/unmod/mr/phaser/phaser_loc0_ALL_c1_t39_r1_polyAla_UNMOD.1.pdb'
p1486
sS'Job_directory'
p1487
S'/opt/ample.git/examples/toxd-example/AMPLE_0/MRBUMP/search_c1_t39_r1_polyAla_mrbump/data/loc0_ALL_c1_t39_r1_polyAla/unmod/mr/phaser'
p1488
sS'BUCC_pdbout'
p1489
S'/opt/ample.git/examples/toxd-example/AMPLE_0/MRBUMP/search_c1_t39_r1_polyAla_mrbump/data/loc0_ALL_c1_t39_r1_polyAla/unmod/mr/phaser/build/buccaneer/buccaneer_pipeline/refined.pdb'
p1490
sS'SXRARP_final_Rfree'
p1491
NsS'REFMAC_mtzout'
p1492
S'/opt/ample.git/examples/toxd-example/AMPLE_0/MRBUMP/search_c1_t39_r1_polyAla_mrbump/data/loc0_ALL_c1_t39_r1_polyAla/unmod/mr/phaser/refine/refmac_phaser_HKLOUT_loc0_ALL_c1_t39_r1_polyAla_UNMOD.mtz'
p1493
sS'SHELXE_mtzout'
p1494
S'/opt/ample.git/examples/toxd-example/AMPLE_0/MRBUMP/search_c1_t39_r1_polyAla_mrbump/data/loc0_ALL_c1_t39_r1_polyAla/unmod/mr/phaser/build/shelxe/shelxe_phaser_loc0_ALL_c1_t39_r1_polyAla_UNMOD.mtz'
p1495
sS'SHELXE_phsout'
p1496
S'/opt/ample.git/examples/toxd-example/AMPLE_0/MRBUMP/search_c1_t39_r1_polyAla_mrbump/data/loc0_ALL_c1_t39_r1_polyAla/unmod/mr/phaser/build/shelxe/shelxe_phaser_loc0_ALL_c1_t39_r1_polyAla_UNMOD.phs'
p1497
sa(dp1498
S'BUCC_mtzout'
p1499
S'/opt/ample.git/examples/toxd-example/AMPLE_0/MRBUMP/search_c1_t8_r1_polyAla_mrbump/data/loc0_ALL_c1_t8_r1_polyAla/unmod/mr/phaser/build/buccaneer/buccaneer_pipeline/refined.mtz'
p1500
sS'SHELXE_logfile'
p1501
S'/opt/ample.git/examples/toxd-example/AMPLE_0/MRBUMP/search_c1_t8_r1_polyAla_mrbump/data/loc0_ALL_c1_t8_r1_polyAla/unmod/mr/phaser/build/shelxe/shelxe_run.log'
p1502
sS'Solution_Type'
p1503
S'POOR'
p1504
sS'PHASER_killed'
p1505
I00
sS'BUCC_final_Rfact'
p1506
F1
sS'PHASER_time'
p1507
F56.759999999999998
sg213
S'c1_t8_r1_polyAla'
p1508
sS'SHELXE_wMPE'
p1509
NsS'PHASER_TFZ'
p1510
F5.4000000000000004
sS'SHELXE_os'
p1511
NsS'PHASER_RFZ'
p1512
F3
sS'BUCC_final_Rfree'
p1513
F1
sS'MOLREP_score'
p1514
NsS'SearchModel_name'
p1515
S'loc0_ALL_c1_t8_r1_polyAla_UNMOD'
p1516
sS'SXRARP_version'
p1517
NsS'ARP_pdbout'
p1518
NsS'PHASER_LLG'
p1519
F24
sS'BUCC_version'
p1520
S'1.6.4'
p1521
sg228
F0.57420000000000004
sS'SXRBUCC_final_Rfact'
p1522
NsS'SXRARP_pdbout'
p1523
NsS'PHASER_version'
p1524
S'2.7.17'
p1525
sS'REFMAC_logfile'
p1526
S'/opt/ample.git/examples/toxd-example/AMPLE_0/MRBUMP/search_c1_t8_r1_polyAla_mrbump/data/loc0_ALL_c1_t8_r1_polyAla/unmod/mr/phaser/refine/refmac_phaser_loc0_ALL_c1_t8_r1_polyAla_UNMOD.log'
p1527
sS'Search_directory'
p1528
S'/opt/ample.git/examples/toxd-example/AMPLE_0/MRBUMP/search_c1_t8_r1_polyAla_mrbump'
p1529
sS'SHELXE_pdbout'
p1530
S'/opt/ample.git/examples/toxd-example/AMPLE_0/MRBUMP/search_c1_t8_r1_polyAla_mrbump/data/loc0_ALL_c1_t8_r1_polyAla/unmod/mr/phaser/build/shelxe/shelxe_phaser_loc0_ALL_c1_t8_r1_polyAla_UNMOD.pdb'
p1531
sS'ARP_logfile'
p1532
NsS'MOLREP_logfile'
p1533
NsS'REFMAC_version'
p1534
S'5.8.0158'
p1535
sS'SXRBUCC_mtzout'
p1536
NsS'SHELXE_NC'
p1537
I2
sS'SXRBUCC_logfile'
p1538
NsS'STATUS'
p1539
S'Finished'
p1540
sS'ARP_version'
p1541
NsS'SHELXE_MCL'
p1542
I17
sS'SXRARP_logfile'
p1543
NsS'SHELXE_ACL'
p1544
I11
sg252
F0.61580000000000001
sS'MOLREP_pdbout'
p1545
NsS'MOLREP_version'
p1546
NsS'SHELXE_time'
p1547
F792.17999999999995
sS'REFMAC_pdbout'
p1548
S'/opt/ample.git/examples/toxd-example/AMPLE_0/MRBUMP/search_c1_t8_r1_polyAla_mrbump/data/loc0_ALL_c1_t8_r1_polyAla/unmod/mr/phaser/refine/refmac_phaser_loc0_ALL_c1_t8_r1_polyAla_UNMOD.pdb'
p1549
sS'SXRBUCC_pdbout'
p1550
NsS'SHELXE_CC'
p1551
F14.02
sS'SXRARP_final_Rfact'
p1552
NsS'SXRBUCC_version'
p1553
NsS'MOLREP_time'
p1554
NsS'PHASER_logfile'
p1555
S'/opt/ample.git/examples/toxd-example/AMPLE_0/MRBUMP/search_c1_t8_r1_polyAla_mrbump/data/loc0_ALL_c1_t8_r1_polyAla/unmod/mr/phaser/phaser_loc0_ALL_c1_t8_r1_polyAla_UNMOD.log'
p1556
sg265
S'loc0_ALL_c1_t8_r1_polyAla_UNMOD'
p1557
sS'BUCC_logfile'
p1558
S'/opt/ample.git/examples/toxd-example/AMPLE_0/MRBUMP/search_c1_t8_r1_polyAla_mrbump/data/loc0_ALL_c1_t8_r1_polyAla/unmod/mr/phaser/build/buccaneer/buccaneer_run.log'
p1559
sS'PHASER_mtzout'
p1560
S'/opt/ample.git/examples/toxd-example/AMPLE_0/MRBUMP/search_c1_t8_r1_polyAla_mrbump/data/loc0_ALL_c1_t8_r1_polyAla/unmod/mr/phaser/phaser_loc0_ALL_c1_t8_r1_polyAla_UNMOD.1.mtz'
p1561
sS'ARP_final_Rfact'
p1562
NsS'SXRARP_mtzout'
p1563
NsS'ARP_final_Rfree'
p1564
NsS'PHASER_error'
p1565
NsS'SXRBUCC_final_Rfree'
p1566
NsS'ARP_mtzout'
p1567
NsS'SHELXE_version'
p1568
S'2016/3'
p1569
sg279
S'PHASER'
p1570
sS'PHASER_pdbout'
p1571
S'/opt/ample.git/examples/toxd-example/AMPLE_0/MRBUMP/search_c1_t8_r1_polyAla_mrbump/data/loc0_ALL_c1_t8_r1_polyAla/unmod/mr/phaser/phaser_loc0_ALL_c1_t8_r1_polyAla_UNMOD.1.pdb'
p1572
sS'Job_directory'
p1573
S'/opt/ample.git/examples/toxd-example/AMPLE_0/MRBUMP/search_c1_t8_r1_polyAla_mrbump/data/loc0_ALL_c1_t8_r1_polyAla/unmod/mr/phaser'
p1574
sS'BUCC_pdbout'
p1575
S'/opt/ample.git/examples/toxd-example/AMPLE_0/MRBUMP/search_c1_t8_r1_polyAla_mrbump/data/loc0_ALL_c1_t8_r1_polyAla/unmod/mr/phaser/build/buccaneer/buccaneer_pipeline/refined.pdb'
p1576
sS'SXRARP_final_Rfree'
p1577
NsS'REFMAC_mtzout'
p1578
S'/opt/ample.git/examples/toxd-example/AMPLE_0/MRBUMP/search_c1_t8_r1_polyAla_mrbump/data/loc0_ALL_c1_t8_r1_polyAla/unmod/mr/phaser/refine/refmac_phaser_HKLOUT_loc0_ALL_c1_t8_r1_polyAla_UNMOD.mtz'
p1579
sS'SHELXE_mtzout'
p1580
S'/opt/ample.git/examples/toxd-example/AMPLE_0/MRBUMP/search_c1_t8_r1_polyAla_mrbump/data/loc0_ALL_c1_t8_r1_polyAla/unmod/mr/phaser/build/shelxe/shelxe_phaser_loc0_ALL_c1_t8_r1_polyAla_UNMOD.mtz'
p1581
sS'SHELXE_phsout'
p1582
S'/opt/ample.git/examples/toxd-example/AMPLE_0/MRBUMP/search_c1_t8_r1_polyAla_mrbump/data/loc0_ALL_c1_t8_r1_polyAla/unmod/mr/phaser/build/shelxe/shelxe_phaser_loc0_ALL_c1_t8_r1_polyAla_UNMOD.phs'
p1583
sa(dp1584
S'BUCC_mtzout'
p1585
S'/opt/ample.git/examples/toxd-example/AMPLE_0/MRBUMP/search_c1_t24_r1_polyAla_mrbump/data/loc0_ALL_c1_t24_r1_polyAla/unmod/mr/phaser/build/buccaneer/buccaneer_pipeline/refined.mtz'
p1586
sS'SHELXE_logfile'
p1587
S'/opt/ample.git/examples/toxd-example/AMPLE_0/MRBUMP/search_c1_t24_r1_polyAla_mrbump/data/loc0_ALL_c1_t24_r1_polyAla/unmod/mr/phaser/build/shelxe/shelxe_run.log'
p1588
sS'Solution_Type'
p1589
S'POOR'
p1590
sS'PHASER_killed'
p1591
I00
sS'BUCC_final_Rfact'
p1592
F1
sS'PHASER_time'
p1593
F45.939999999999998
sg213
S'c1_t24_r1_polyAla'
p1594
sS'SHELXE_wMPE'
p1595
NsS'PHASER_TFZ'
p1596
F5
sS'SHELXE_os'
p1597
NsS'PHASER_RFZ'
p1598
F3.8999999999999999
sS'BUCC_final_Rfree'
p1599
F1
sS'MOLREP_score'
p1600
NsS'SearchModel_name'
p1601
S'loc0_ALL_c1_t24_r1_polyAla_UNMOD'
p1602
sS'SXRARP_version'
p1603
NsS'ARP_pdbout'
p1604
NsS'PHASER_LLG'
p1605
F26
sS'BUCC_version'
p1606
S'1.6.4'
p1607
sg228
F0.57630000000000003
sS'SXRBUCC_final_Rfact'
p1608
NsS'SXRARP_pdbout'
p1609
NsS'PHASER_version'
p1610
S'2.7.17'
p1611
sS'REFMAC_logfile'
p1612
S'/opt/ample.git/examples/toxd-example/AMPLE_0/MRBUMP/search_c1_t24_r1_polyAla_mrbump/data/loc0_ALL_c1_t24_r1_polyAla/unmod/mr/phaser/refine/refmac_phaser_loc0_ALL_c1_t24_r1_polyAla_UNMOD.log'
p1613
sS'Search_directory'
p1614
S'/opt/ample.git/examples/toxd-example/AMPLE_0/MRBUMP/search_c1_t24_r1_polyAla_mrbump'
p1615
sS'SHELXE_pdbout'
p1616
S'/opt/ample.git/examples/toxd-example/AMPLE_0/MRBUMP/search_c1_t24_r1_polyAla_mrbump/data/loc0_ALL_c1_t24_r1_polyAla/unmod/mr/phaser/build/shelxe/shelxe_phaser_loc0_ALL_c1_t24_r1_polyAla_UNMOD.pdb'
p1617
sS'ARP_logfile'
p1618
NsS'MOLREP_logfile'
p1619
NsS'REFMAC_version'
p1620
S'5.8.0158'
p1621
sS'SXRBUCC_mtzout'
p1622
NsS'SHELXE_NC'
p1623
I3
sS'SXRBUCC_logfile'
p1624
NsS'STATUS'
p1625
S'Finished'
p1626
sS'ARP_version'
p1627
NsS'SHELXE_MCL'
p1628
I14
sS'SXRARP_logfile'
p1629
NsS'SHELXE_ACL'
p1630
I8
sg252
F0.57899999999999996
sS'MOLREP_pdbout'
p1631
NsS'MOLREP_version'
p1632
NsS'SHELXE_time'
p1633
F719.77999999999997
sS'REFMAC_pdbout'
p1634
S'/opt/ample.git/examples/toxd-example/AMPLE_0/MRBUMP/search_c1_t24_r1_polyAla_mrbump/data/loc0_ALL_c1_t24_r1_polyAla/unmod/mr/phaser/refine/refmac_phaser_loc0_ALL_c1_t24_r1_polyAla_UNMOD.pdb'
p1635
sS'SXRBUCC_pdbout'
p1636
NsS'SHELXE_CC'
p1637
F13.91
sS'SXRARP_final_Rfact'
p1638
NsS'SXRBUCC_version'
p1639
NsS'MOLREP_time'
p1640
NsS'PHASER_logfile'
p1641
S'/opt/ample.git/examples/toxd-example/AMPLE_0/MRBUMP/search_c1_t24_r1_polyAla_mrbump/data/loc0_ALL_c1_t24_r1_polyAla/unmod/mr/phaser/phaser_loc0_ALL_c1_t24_r1_polyAla_UNMOD.log'
p1642
sg265
S'loc0_ALL_c1_t24_r1_polyAla_UNMOD'
p1643
sS'BUCC_logfile'
p1644
S'/opt/ample.git/examples/toxd-example/AMPLE_0/MRBUMP/search_c1_t24_r1_polyAla_mrbump/data/loc0_ALL_c1_t24_r1_polyAla/unmod/mr/phaser/build/buccaneer/buccaneer_run.log'
p1645
sS'PHASER_mtzout'
p1646
S'/opt/ample.git/examples/toxd-example/AMPLE_0/MRBUMP/search_c1_t24_r1_polyAla_mrbump/data/loc0_ALL_c1_t24_r1_polyAla/unmod/mr/phaser/phaser_loc0_ALL_c1_t24_r1_polyAla_UNMOD.1.mtz'
p1647
sS'ARP_final_Rfact'
p1648
NsS'SXRARP_mtzout'
p1649
NsS'ARP_final_Rfree'
p1650
NsS'PHASER_error'
p1651
NsS'SXRBUCC_final_Rfree'
p1652
NsS'ARP_mtzout'
p1653
NsS'SHELXE_version'
p1654
S'2016/3'
p1655
sg279
S'PHASER'
p1656
sS'PHASER_pdbout'
p1657
S'/opt/ample.git/examples/toxd-example/AMPLE_0/MRBUMP/search_c1_t24_r1_polyAla_mrbump/data/loc0_ALL_c1_t24_r1_polyAla/unmod/mr/phaser/phaser_loc0_ALL_c1_t24_r1_polyAla_UNMOD.1.pdb'
p1658
sS'Job_directory'
p1659
S'/opt/ample.git/examples/toxd-example/AMPLE_0/MRBUMP/search_c1_t24_r1_polyAla_mrbump/data/loc0_ALL_c1_t24_r1_polyAla/unmod/mr/phaser'
p1660
sS'BUCC_pdbout'
p1661
S'/opt/ample.git/examples/toxd-example/AMPLE_0/MRBUMP/search_c1_t24_r1_polyAla_mrbump/data/loc0_ALL_c1_t24_r1_polyAla/unmod/mr/phaser/build/buccaneer/buccaneer_pipeline/refined.pdb'
p1662
sS'SXRARP_final_Rfree'
p1663
NsS'REFMAC_mtzout'
p1664
S'/opt/ample.git/examples/toxd-example/AMPLE_0/MRBUMP/search_c1_t24_r1_polyAla_mrbump/data/loc0_ALL_c1_t24_r1_polyAla/unmod/mr/phaser/refine/refmac_phaser_HKLOUT_loc0_ALL_c1_t24_r1_polyAla_UNMOD.mtz'
p1665
sS'SHELXE_mtzout'
p1666
S'/opt/ample.git/examples/toxd-example/AMPLE_0/MRBUMP/search_c1_t24_r1_polyAla_mrbump/data/loc0_ALL_c1_t24_r1_polyAla/unmod/mr/phaser/build/shelxe/shelxe_phaser_loc0_ALL_c1_t24_r1_polyAla_UNMOD.mtz'
p1667
sS'SHELXE_phsout'
p1668
S'/opt/ample.git/examples/toxd-example/AMPLE_0/MRBUMP/search_c1_t24_r1_polyAla_mrbump/data/loc0_ALL_c1_t24_r1_polyAla/unmod/mr/phaser/build/shelxe/shelxe_phaser_loc0_ALL_c1_t24_r1_polyAla_UNMOD.phs'
p1669
sa(dp1670
S'BUCC_mtzout'
p1671
S'/opt/ample.git/examples/toxd-example/AMPLE_0/MRBUMP/search_c1_t44_r1_polyAla_mrbump/data/loc0_ALL_c1_t44_r1_polyAla/unmod/mr/phaser/build/buccaneer/buccaneer_pipeline/refined.mtz'
p1672
sS'SHELXE_logfile'
p1673
S'/opt/ample.git/examples/toxd-example/AMPLE_0/MRBUMP/search_c1_t44_r1_polyAla_mrbump/data/loc0_ALL_c1_t44_r1_polyAla/unmod/mr/phaser/build/shelxe/shelxe_run.log'
p1674
sS'Solution_Type'
p1675
S'POOR'
p1676
sS'PHASER_killed'
p1677
I00
sS'BUCC_final_Rfact'
p1678
F1
sS'PHASER_time'
p1679
F126.59999999999999
sg213
S'c1_t44_r1_polyAla'
p1680
sS'SHELXE_wMPE'
p1681
NsS'PHASER_TFZ'
p1682
F5.2999999999999998
sS'SHELXE_os'
p1683
NsS'PHASER_RFZ'
p1684
F3.2000000000000002
sS'BUCC_final_Rfree'
p1685
F1
sS'MOLREP_score'
p1686
NsS'SearchModel_name'
p1687
S'loc0_ALL_c1_t44_r1_polyAla_UNMOD'
p1688
sS'SXRARP_version'
p1689
NsS'ARP_pdbout'
p1690
NsS'PHASER_LLG'
p1691
F22
sS'BUCC_version'
p1692
S'1.6.4'
p1693
sg228
F0.57379999999999998
sS'SXRBUCC_final_Rfact'
p1694
NsS'SXRARP_pdbout'
p1695
NsS'PHASER_version'
p1696
S'2.7.17'
p1697
sS'REFMAC_logfile'
p1698
S'/opt/ample.git/examples/toxd-example/AMPLE_0/MRBUMP/search_c1_t44_r1_polyAla_mrbump/data/loc0_ALL_c1_t44_r1_polyAla/unmod/mr/phaser/refine/refmac_phaser_loc0_ALL_c1_t44_r1_polyAla_UNMOD.log'
p1699
sS'Search_directory'
p1700
S'/opt/ample.git/examples/toxd-example/AMPLE_0/MRBUMP/search_c1_t44_r1_polyAla_mrbump'
p1701
sS'SHELXE_pdbout'
p1702
S'/opt/ample.git/examples/toxd-example/AMPLE_0/MRBUMP/search_c1_t44_r1_polyAla_mrbump/data/loc0_ALL_c1_t44_r1_polyAla/unmod/mr/phaser/build/shelxe/shelxe_phaser_loc0_ALL_c1_t44_r1_polyAla_UNMOD.pdb'
p1703
sS'ARP_logfile'
p1704
NsS'MOLREP_logfile'
p1705
NsS'REFMAC_version'
p1706
S'5.8.0158'
p1707
sS'SXRBUCC_mtzout'
p1708
NsS'SHELXE_NC'
p1709
I3
sS'SXRBUCC_logfile'
p1710
NsS'STATUS'
p1711
S'Finished'
p1712
sS'ARP_version'
p1713
NsS'SHELXE_MCL'
p1714
I8
sS'SXRARP_logfile'
p1715
NsS'SHELXE_ACL'
p1716
I6
sg252
F0.56859999999999999
sS'MOLREP_pdbout'
p1717
NsS'MOLREP_version'
p1718
NsS'SHELXE_time'
p1719
F775.89999999999998
sS'REFMAC_pdbout'
p1720
S'/opt/ample.git/examples/toxd-example/AMPLE_0/MRBUMP/search_c1_t44_r1_polyAla_mrbump/data/loc0_ALL_c1_t44_r1_polyAla/unmod/mr/phaser/refine/refmac_phaser_loc0_ALL_c1_t44_r1_polyAla_UNMOD.pdb'
p1721
sS'SXRBUCC_pdbout'
p1722
NsS'SHELXE_CC'
p1723
F13.09
sS'SXRARP_final_Rfact'
p1724
NsS'SXRBUCC_version'
p1725
NsS'MOLREP_time'
p1726
NsS'PHASER_logfile'
p1727
S'/opt/ample.git/examples/toxd-example/AMPLE_0/MRBUMP/search_c1_t44_r1_polyAla_mrbump/data/loc0_ALL_c1_t44_r1_polyAla/unmod/mr/phaser/phaser_loc0_ALL_c1_t44_r1_polyAla_UNMOD.log'
p1728
sg265
S'loc0_ALL_c1_t44_r1_polyAla_UNMOD'
p1729
sS'BUCC_logfile'
p1730
S'/opt/ample.git/examples/toxd-example/AMPLE_0/MRBUMP/search_c1_t44_r1_polyAla_mrbump/data/loc0_ALL_c1_t44_r1_polyAla/unmod/mr/phaser/build/buccaneer/buccaneer_run.log'
p1731
sS'PHASER_mtzout'
p1732
S'/opt/ample.git/examples/toxd-example/AMPLE_0/MRBUMP/search_c1_t44_r1_polyAla_mrbump/data/loc0_ALL_c1_t44_r1_polyAla/unmod/mr/phaser/phaser_loc0_ALL_c1_t44_r1_polyAla_UNMOD.1.mtz'
p1733
sS'ARP_final_Rfact'
p1734
NsS'SXRARP_mtzout'
p1735
NsS'ARP_final_Rfree'
p1736
NsS'PHASER_error'
p1737
NsS'SXRBUCC_final_Rfree'
p1738
NsS'ARP_mtzout'
p1739
NsS'SHELXE_version'
p1740
S'2016/3'
p1741
sg279
S'PHASER'
p1742
sS'PHASER_pdbout'
p1743
S'/opt/ample.git/examples/toxd-example/AMPLE_0/MRBUMP/search_c1_t44_r1_polyAla_mrbump/data/loc0_ALL_c1_t44_r1_polyAla/unmod/mr/phaser/phaser_loc0_ALL_c1_t44_r1_polyAla_UNMOD.1.pdb'
p1744
sS'Job_directory'
p1745
S'/opt/ample.git/examples/toxd-example/AMPLE_0/MRBUMP/search_c1_t44_r1_polyAla_mrbump/data/loc0_ALL_c1_t44_r1_polyAla/unmod/mr/phaser'
p1746
sS'BUCC_pdbout'
p1747
S'/opt/ample.git/examples/toxd-example/AMPLE_0/MRBUMP/search_c1_t44_r1_polyAla_mrbump/data/loc0_ALL_c1_t44_r1_polyAla/unmod/mr/phaser/build/buccaneer/buccaneer_pipeline/refined.pdb'
p1748
sS'SXRARP_final_Rfree'
p1749
NsS'REFMAC_mtzout'
p1750
S'/opt/ample.git/examples/toxd-example/AMPLE_0/MRBUMP/search_c1_t44_r1_polyAla_mrbump/data/loc0_ALL_c1_t44_r1_polyAla/unmod/mr/phaser/refine/refmac_phaser_HKLOUT_loc0_ALL_c1_t44_r1_polyAla_UNMOD.mtz'
p1751
sS'SHELXE_mtzout'
p1752
S'/opt/ample.git/examples/toxd-example/AMPLE_0/MRBUMP/search_c1_t44_r1_polyAla_mrbump/data/loc0_ALL_c1_t44_r1_polyAla/unmod/mr/phaser/build/shelxe/shelxe_phaser_loc0_ALL_c1_t44_r1_polyAla_UNMOD.mtz'
p1753
sS'SHELXE_phsout'
p1754
S'/opt/ample.git/examples/toxd-example/AMPLE_0/MRBUMP/search_c1_t44_r1_polyAla_mrbump/data/loc0_ALL_c1_t44_r1_polyAla/unmod/mr/phaser/build/shelxe/shelxe_phaser_loc0_ALL_c1_t44_r1_polyAla_UNMOD.phs'
p1755
sa(dp1756
S'BUCC_mtzout'
p1757
S'/opt/ample.git/examples/toxd-example/AMPLE_0/MRBUMP/search_c1_t49_r3_polyAla_mrbump/data/loc0_ALL_c1_t49_r3_polyAla/unmod/mr/phaser/build/buccaneer/buccaneer_pipeline/refined.mtz'
p1758
sS'SHELXE_logfile'
p1759
S'/opt/ample.git/examples/toxd-example/AMPLE_0/MRBUMP/search_c1_t49_r3_polyAla_mrbump/data/loc0_ALL_c1_t49_r3_polyAla/unmod/mr/phaser/build/shelxe/shelxe_run.log'
p1760
sS'Solution_Type'
p1761
S'POOR'
p1762
sS'PHASER_killed'
p1763
I00
sS'BUCC_final_Rfact'
p1764
F0.5454
sS'PHASER_time'
p1765
F146.83000000000001
sg213
S'c1_t49_r3_polyAla'
p1766
sS'SHELXE_wMPE'
p1767
NsS'PHASER_TFZ'
p1768
F5
sS'SHELXE_os'
p1769
NsS'PHASER_RFZ'
p1770
F4
sS'BUCC_final_Rfree'
p1771
F0.56259999999999999
sS'MOLREP_score'
p1772
NsS'SearchModel_name'
p1773
S'loc0_ALL_c1_t49_r3_polyAla_UNMOD'
p1774
sS'SXRARP_version'
p1775
NsS'ARP_pdbout'
p1776
NsS'PHASER_LLG'
p1777
F24
sS'BUCC_version'
p1778
S'1.6.4'
p1779
sg228
F0.57820000000000005
sS'SXRBUCC_final_Rfact'
p1780
NsS'SXRARP_pdbout'
p1781
NsS'PHASER_version'
p1782
S'2.7.17'
p1783
sS'REFMAC_logfile'
p1784
S'/opt/ample.git/examples/toxd-example/AMPLE_0/MRBUMP/search_c1_t49_r3_polyAla_mrbump/data/loc0_ALL_c1_t49_r3_polyAla/unmod/mr/phaser/refine/refmac_phaser_loc0_ALL_c1_t49_r3_polyAla_UNMOD.log'
p1785
sS'Search_directory'
p1786
S'/opt/ample.git/examples/toxd-example/AMPLE_0/MRBUMP/search_c1_t49_r3_polyAla_mrbump'
p1787
sS'SHELXE_pdbout'
p1788
S'/opt/ample.git/examples/toxd-example/AMPLE_0/MRBUMP/search_c1_t49_r3_polyAla_mrbump/data/loc0_ALL_c1_t49_r3_polyAla/unmod/mr/phaser/build/shelxe/shelxe_phaser_loc0_ALL_c1_t49_r3_polyAla_UNMOD.pdb'
p1789
sS'ARP_logfile'
p1790
NsS'MOLREP_logfile'
p1791
NsS'REFMAC_version'
p1792
S'5.8.0158'
p1793
sS'SXRBUCC_mtzout'
p1794
NsS'SHELXE_NC'
p1795
I3
sS'SXRBUCC_logfile'
p1796
NsS'STATUS'
p1797
S'Finished'
p1798
sS'ARP_version'
p1799
NsS'SHELXE_MCL'
p1800
I7
sS'SXRARP_logfile'
p1801
NsS'SHELXE_ACL'
p1802
I6
sg252
F0.57299999999999995
sS'MOLREP_pdbout'
p1803
NsS'MOLREP_version'
p1804
NsS'SHELXE_time'
p1805
F778.44000000000005
sS'REFMAC_pdbout'
p1806
S'/opt/ample.git/examples/toxd-example/AMPLE_0/MRBUMP/search_c1_t49_r3_polyAla_mrbump/data/loc0_ALL_c1_t49_r3_polyAla/unmod/mr/phaser/refine/refmac_phaser_loc0_ALL_c1_t49_r3_polyAla_UNMOD.pdb'
p1807
sS'SXRBUCC_pdbout'
p1808
NsS'SHELXE_CC'
p1809
F13.050000000000001
sS'SXRARP_final_Rfact'
p1810
NsS'SXRBUCC_version'
p1811
NsS'MOLREP_time'
p1812
NsS'PHASER_logfile'
p1813
S'/opt/ample.git/examples/toxd-example/AMPLE_0/MRBUMP/search_c1_t49_r3_polyAla_mrbump/data/loc0_ALL_c1_t49_r3_polyAla/unmod/mr/phaser/phaser_loc0_ALL_c1_t49_r3_polyAla_UNMOD.log'
p1814
sg265
S'loc0_ALL_c1_t49_r3_polyAla_UNMOD'
p1815
sS'BUCC_logfile'
p1816
S'/opt/ample.git/examples/toxd-example/AMPLE_0/MRBUMP/search_c1_t49_r3_polyAla_mrbump/data/loc0_ALL_c1_t49_r3_polyAla/unmod/mr/phaser/build/buccaneer/buccaneer_run.log'
p1817
sS'PHASER_mtzout'
p1818
S'/opt/ample.git/examples/toxd-example/AMPLE_0/MRBUMP/search_c1_t49_r3_polyAla_mrbump/data/loc0_ALL_c1_t49_r3_polyAla/unmod/mr/phaser/phaser_loc0_ALL_c1_t49_r3_polyAla_UNMOD.1.mtz'
p1819
sS'ARP_final_Rfact'
p1820
NsS'SXRARP_mtzout'
p1821
NsS'ARP_final_Rfree'
p1822
NsS'PHASER_error'
p1823
NsS'SXRBUCC_final_Rfree'
p1824
NsS'ARP_mtzout'
p1825
NsS'SHELXE_version'
p1826
S'2016/3'
p1827
sg279
S'PHASER'
p1828
sS'PHASER_pdbout'
p1829
S'/opt/ample.git/examples/toxd-example/AMPLE_0/MRBUMP/search_c1_t49_r3_polyAla_mrbump/data/loc0_ALL_c1_t49_r3_polyAla/unmod/mr/phaser/phaser_loc0_ALL_c1_t49_r3_polyAla_UNMOD.1.pdb'
p1830
sS'Job_directory'
p1831
S'/opt/ample.git/examples/toxd-example/AMPLE_0/MRBUMP/search_c1_t49_r3_polyAla_mrbump/data/loc0_ALL_c1_t49_r3_polyAla/unmod/mr/phaser'
p1832
sS'BUCC_pdbout'
p1833
S'/opt/ample.git/examples/toxd-example/AMPLE_0/MRBUMP/search_c1_t49_r3_polyAla_mrbump/data/loc0_ALL_c1_t49_r3_polyAla/unmod/mr/phaser/build/buccaneer/buccaneer_pipeline/refined.pdb'
p1834
sS'SXRARP_final_Rfree'
p1835
NsS'REFMAC_mtzout'
p1836
S'/opt/ample.git/examples/toxd-example/AMPLE_0/MRBUMP/search_c1_t49_r3_polyAla_mrbump/data/loc0_ALL_c1_t49_r3_polyAla/unmod/mr/phaser/refine/refmac_phaser_HKLOUT_loc0_ALL_c1_t49_r3_polyAla_UNMOD.mtz'
p1837
sS'SHELXE_mtzout'
p1838
S'/opt/ample.git/examples/toxd-example/AMPLE_0/MRBUMP/search_c1_t49_r3_polyAla_mrbump/data/loc0_ALL_c1_t49_r3_polyAla/unmod/mr/phaser/build/shelxe/shelxe_phaser_loc0_ALL_c1_t49_r3_polyAla_UNMOD.mtz'
p1839
sS'SHELXE_phsout'
p1840
S'/opt/ample.git/examples/toxd-example/AMPLE_0/MRBUMP/search_c1_t49_r3_polyAla_mrbump/data/loc0_ALL_c1_t49_r3_polyAla/unmod/mr/phaser/build/shelxe/shelxe_phaser_loc0_ALL_c1_t49_r3_polyAla_UNMOD.phs'
p1841
sa(dp1842
S'BUCC_mtzout'
p1843
S'/opt/ample.git/examples/toxd-example/AMPLE_0/MRBUMP/search_c1_t64_r3_polyAla_mrbump/data/loc0_ALL_c1_t64_r3_polyAla/unmod/mr/phaser/build/buccaneer/buccaneer_pipeline/refined.mtz'
p1844
sS'SHELXE_logfile'
p1845
S'/opt/ample.git/examples/toxd-example/AMPLE_0/MRBUMP/search_c1_t64_r3_polyAla_mrbump/data/loc0_ALL_c1_t64_r3_polyAla/unmod/mr/phaser/build/shelxe/shelxe_run.log'
p1846
sS'Solution_Type'
p1847
S'POOR'
p1848
sS'PHASER_killed'
p1849
I00
sS'BUCC_final_Rfact'
p1850
F1
sS'PHASER_time'
p1851
F94.680000000000007
sg213
S'c1_t64_r3_polyAla'
p1852
sS'SHELXE_wMPE'
p1853
NsS'PHASER_TFZ'
p1854
F5.5999999999999996
sS'SHELXE_os'
p1855
NsS'PHASER_RFZ'
p1856
F4.0999999999999996
sS'BUCC_final_Rfree'
p1857
F1
sS'MOLREP_score'
p1858
NsS'SearchModel_name'
p1859
S'loc0_ALL_c1_t64_r3_polyAla_UNMOD'
p1860
sS'SXRARP_version'
p1861
NsS'ARP_pdbout'
p1862
NsS'PHASER_LLG'
p1863
F27
sS'BUCC_version'
p1864
S'1.6.4'
p1865
sg228
F0.55420000000000003
sS'SXRBUCC_final_Rfact'
p1866
NsS'SXRARP_pdbout'
p1867
NsS'PHASER_version'
p1868
S'2.7.17'
p1869
sS'REFMAC_logfile'
p1870
S'/opt/ample.git/examples/toxd-example/AMPLE_0/MRBUMP/search_c1_t64_r3_polyAla_mrbump/data/loc0_ALL_c1_t64_r3_polyAla/unmod/mr/phaser/refine/refmac_phaser_loc0_ALL_c1_t64_r3_polyAla_UNMOD.log'
p1871
sS'Search_directory'
p1872
S'/opt/ample.git/examples/toxd-example/AMPLE_0/MRBUMP/search_c1_t64_r3_polyAla_mrbump'
p1873
sS'SHELXE_pdbout'
p1874
S'/opt/ample.git/examples/toxd-example/AMPLE_0/MRBUMP/search_c1_t64_r3_polyAla_mrbump/data/loc0_ALL_c1_t64_r3_polyAla/unmod/mr/phaser/build/shelxe/shelxe_phaser_loc0_ALL_c1_t64_r3_polyAla_UNMOD.pdb'
p1875
sS'ARP_logfile'
p1876
NsS'MOLREP_logfile'
p1877
NsS'REFMAC_version'
p1878
S'5.8.0158'
p1879
sS'SXRBUCC_mtzout'
p1880
NsS'SHELXE_NC'
p1881
I3
sS'SXRBUCC_logfile'
p1882
NsS'STATUS'
p1883
S'Finished'
p1884
sS'ARP_version'
p1885
NsS'SHELXE_MCL'
p1886
I8
sS'SXRARP_logfile'
p1887
NsS'SHELXE_ACL'
p1888
I6
sg252
F0.5575
sS'MOLREP_pdbout'
p1889
NsS'MOLREP_version'
p1890
NsS'SHELXE_time'
p1891
F752.35000000000002
sS'REFMAC_pdbout'
p1892
S'/opt/ample.git/examples/toxd-example/AMPLE_0/MRBUMP/search_c1_t64_r3_polyAla_mrbump/data/loc0_ALL_c1_t64_r3_polyAla/unmod/mr/phaser/refine/refmac_phaser_loc0_ALL_c1_t64_r3_polyAla_UNMOD.pdb'
p1893
sS'SXRBUCC_pdbout'
p1894
NsS'SHELXE_CC'
p1895
F12.199999999999999
sS'SXRARP_final_Rfact'
p1896
NsS'SXRBUCC_version'
p1897
NsS'MOLREP_time'
p1898
NsS'PHASER_logfile'
p1899
S'/opt/ample.git/examples/toxd-example/AMPLE_0/MRBUMP/search_c1_t64_r3_polyAla_mrbump/data/loc0_ALL_c1_t64_r3_polyAla/unmod/mr/phaser/phaser_loc0_ALL_c1_t64_r3_polyAla_UNMOD.log'
p1900
sg265
S'loc0_ALL_c1_t64_r3_polyAla_UNMOD'
p1901
sS'BUCC_logfile'
p1902
S'/opt/ample.git/examples/toxd-example/AMPLE_0/MRBUMP/search_c1_t64_r3_polyAla_mrbump/data/loc0_ALL_c1_t64_r3_polyAla/unmod/mr/phaser/build/buccaneer/buccaneer_run.log'
p1903
sS'PHASER_mtzout'
p1904
S'/opt/ample.git/examples/toxd-example/AMPLE_0/MRBUMP/search_c1_t64_r3_polyAla_mrbump/data/loc0_ALL_c1_t64_r3_polyAla/unmod/mr/phaser/phaser_loc0_ALL_c1_t64_r3_polyAla_UNMOD.1.mtz'
p1905
sS'ARP_final_Rfact'
p1906
NsS'SXRARP_mtzout'
p1907
NsS'ARP_final_Rfree'
p1908
NsS'PHASER_error'
p1909
NsS'SXRBUCC_final_Rfree'
p1910
NsS'ARP_mtzout'
p1911
NsS'SHELXE_version'
p1912
S'2016/3'
p1913
sg279
S'PHASER'
p1914
sS'PHASER_pdbout'
p1915
S'/opt/ample.git/examples/toxd-example/AMPLE_0/MRBUMP/search_c1_t64_r3_polyAla_mrbump/data/loc0_ALL_c1_t64_r3_polyAla/unmod/mr/phaser/phaser_loc0_ALL_c1_t64_r3_polyAla_UNMOD.1.pdb'
p1916
sS'Job_directory'
p1917
S'/opt/ample.git/examples/toxd-example/AMPLE_0/MRBUMP/search_c1_t64_r3_polyAla_mrbump/data/loc0_ALL_c1_t64_r3_polyAla/unmod/mr/phaser'
p1918
sS'BUCC_pdbout'
p1919
S'/opt/ample.git/examples/toxd-example/AMPLE_0/MRBUMP/search_c1_t64_r3_polyAla_mrbump/data/loc0_ALL_c1_t64_r3_polyAla/unmod/mr/phaser/build/buccaneer/buccaneer_pipeline/refined.pdb'
p1920
sS'SXRARP_final_Rfree'
p1921
NsS'REFMAC_mtzout'
p1922
S'/opt/ample.git/examples/toxd-example/AMPLE_0/MRBUMP/search_c1_t64_r3_polyAla_mrbump/data/loc0_ALL_c1_t64_r3_polyAla/unmod/mr/phaser/refine/refmac_phaser_HKLOUT_loc0_ALL_c1_t64_r3_polyAla_UNMOD.mtz'
p1923
sS'SHELXE_mtzout'
p1924
S'/opt/ample.git/examples/toxd-example/AMPLE_0/MRBUMP/search_c1_t64_r3_polyAla_mrbump/data/loc0_ALL_c1_t64_r3_polyAla/unmod/mr/phaser/build/shelxe/shelxe_phaser_loc0_ALL_c1_t64_r3_polyAla_UNMOD.mtz'
p1925
sS'SHELXE_phsout'
p1926
S'/opt/ample.git/examples/toxd-example/AMPLE_0/MRBUMP/search_c1_t64_r3_polyAla_mrbump/data/loc0_ALL_c1_t64_r3_polyAla/unmod/mr/phaser/build/shelxe/shelxe_phaser_loc0_ALL_c1_t64_r3_polyAla_UNMOD.phs'
p1927
sa(dp1928
S'BUCC_mtzout'
p1929
S'/opt/ample.git/examples/toxd-example/AMPLE_0/MRBUMP/search_c1_t34_r1_polyAla_mrbump/data/loc0_ALL_c1_t34_r1_polyAla/unmod/mr/phaser/build/buccaneer/buccaneer_pipeline/refined.mtz'
p1930
sS'SHELXE_logfile'
p1931
S'/opt/ample.git/examples/toxd-example/AMPLE_0/MRBUMP/search_c1_t34_r1_polyAla_mrbump/data/loc0_ALL_c1_t34_r1_polyAla/unmod/mr/phaser/build/shelxe/shelxe_run.log'
p1932
sS'Solution_Type'
p1933
S'POOR'
p1934
sS'PHASER_killed'
p1935
I00
sS'BUCC_final_Rfact'
p1936
F1
sS'PHASER_time'
p1937
F146.44999999999999
sg213
S'c1_t34_r1_polyAla'
p1938
sS'SHELXE_wMPE'
p1939
NsS'PHASER_TFZ'
p1940
F5.9000000000000004
sS'SHELXE_os'
p1941
NsS'PHASER_RFZ'
p1942
F2.7000000000000002
sS'BUCC_final_Rfree'
p1943
F1
sS'MOLREP_score'
p1944
NsS'SearchModel_name'
p1945
S'loc0_ALL_c1_t34_r1_polyAla_UNMOD'
p1946
sS'SXRARP_version'
p1947
NsS'ARP_pdbout'
p1948
NsS'PHASER_LLG'
p1949
F24
sS'BUCC_version'
p1950
S'1.6.4'
p1951
sg228
F0.57820000000000005
sS'SXRBUCC_final_Rfact'
p1952
NsS'SXRARP_pdbout'
p1953
NsS'PHASER_version'
p1954
S'2.7.17'
p1955
sS'REFMAC_logfile'
p1956
S'/opt/ample.git/examples/toxd-example/AMPLE_0/MRBUMP/search_c1_t34_r1_polyAla_mrbump/data/loc0_ALL_c1_t34_r1_polyAla/unmod/mr/phaser/refine/refmac_phaser_loc0_ALL_c1_t34_r1_polyAla_UNMOD.log'
p1957
sS'Search_directory'
p1958
S'/opt/ample.git/examples/toxd-example/AMPLE_0/MRBUMP/search_c1_t34_r1_polyAla_mrbump'
p1959
sS'SHELXE_pdbout'
p1960
S'/opt/ample.git/examples/toxd-example/AMPLE_0/MRBUMP/search_c1_t34_r1_polyAla_mrbump/data/loc0_ALL_c1_t34_r1_polyAla/unmod/mr/phaser/build/shelxe/shelxe_phaser_loc0_ALL_c1_t34_r1_polyAla_UNMOD.pdb'
p1961
sS'ARP_logfile'
p1962
NsS'MOLREP_logfile'
p1963
NsS'REFMAC_version'
p1964
S'5.8.0158'
p1965
sS'SXRBUCC_mtzout'
p1966
NsS'SHELXE_NC'
p1967
I1
sS'SXRBUCC_logfile'
p1968
NsS'STATUS'
p1969
S'Finished'
p1970
sS'ARP_version'
p1971
NsS'SHELXE_MCL'
p1972
I18
sS'SXRARP_logfile'
p1973
NsS'SHELXE_ACL'
p1974
I18
sg252
F0.60660000000000003
sS'MOLREP_pdbout'
p1975
NsS'MOLREP_version'
p1976
NsS'SHELXE_time'
p1977
F793.11000000000001
sS'REFMAC_pdbout'
p1978
S'/opt/ample.git/examples/toxd-example/AMPLE_0/MRBUMP/search_c1_t34_r1_polyAla_mrbump/data/loc0_ALL_c1_t34_r1_polyAla/unmod/mr/phaser/refine/refmac_phaser_loc0_ALL_c1_t34_r1_polyAla_UNMOD.pdb'
p1979
sS'SXRBUCC_pdbout'
p1980
NsS'SHELXE_CC'
p1981
F11.33
sS'SXRARP_final_Rfact'
p1982
NsS'SXRBUCC_version'
p1983
NsS'MOLREP_time'
p1984
NsS'PHASER_logfile'
p1985
S'/opt/ample.git/examples/toxd-example/AMPLE_0/MRBUMP/search_c1_t34_r1_polyAla_mrbump/data/loc0_ALL_c1_t34_r1_polyAla/unmod/mr/phaser/phaser_loc0_ALL_c1_t34_r1_polyAla_UNMOD.log'
p1986
sg265
S'loc0_ALL_c1_t34_r1_polyAla_UNMOD'
p1987
sS'BUCC_logfile'
p1988
S'/opt/ample.git/examples/toxd-example/AMPLE_0/MRBUMP/search_c1_t34_r1_polyAla_mrbump/data/loc0_ALL_c1_t34_r1_polyAla/unmod/mr/phaser/build/buccaneer/buccaneer_run.log'
p1989
sS'PHASER_mtzout'
p1990
S'/opt/ample.git/examples/toxd-example/AMPLE_0/MRBUMP/search_c1_t34_r1_polyAla_mrbump/data/loc0_ALL_c1_t34_r1_polyAla/unmod/mr/phaser/phaser_loc0_ALL_c1_t34_r1_polyAla_UNMOD.1.mtz'
p1991
sS'ARP_final_Rfact'
p1992
NsS'SXRARP_mtzout'
p1993
NsS'ARP_final_Rfree'
p1994
NsS'PHASER_error'
p1995
NsS'SXRBUCC_final_Rfree'
p1996
NsS'ARP_mtzout'
p1997
NsS'SHELXE_version'
p1998
S'2016/3'
p1999
sg279
S'PHASER'
p2000
sS'PHASER_pdbout'
p2001
S'/opt/ample.git/examples/toxd-example/AMPLE_0/MRBUMP/search_c1_t34_r1_polyAla_mrbump/data/loc0_ALL_c1_t34_r1_polyAla/unmod/mr/phaser/phaser_loc0_ALL_c1_t34_r1_polyAla_UNMOD.1.pdb'
p2002
sS'Job_directory'
p2003
S'/opt/ample.git/examples/toxd-example/AMPLE_0/MRBUMP/search_c1_t34_r1_polyAla_mrbump/data/loc0_ALL_c1_t34_r1_polyAla/unmod/mr/phaser'
p2004
sS'BUCC_pdbout'
p2005
S'/opt/ample.git/examples/toxd-example/AMPLE_0/MRBUMP/search_c1_t34_r1_polyAla_mrbump/data/loc0_ALL_c1_t34_r1_polyAla/unmod/mr/phaser/build/buccaneer/buccaneer_pipeline/refined.pdb'
p2006
sS'SXRARP_final_Rfree'
p2007
NsS'REFMAC_mtzout'
p2008
S'/opt/ample.git/examples/toxd-example/AMPLE_0/MRBUMP/search_c1_t34_r1_polyAla_mrbump/data/loc0_ALL_c1_t34_r1_polyAla/unmod/mr/phaser/refine/refmac_phaser_HKLOUT_loc0_ALL_c1_t34_r1_polyAla_UNMOD.mtz'
p2009
sS'SHELXE_mtzout'
p2010
S'/opt/ample.git/examples/toxd-example/AMPLE_0/MRBUMP/search_c1_t34_r1_polyAla_mrbump/data/loc0_ALL_c1_t34_r1_polyAla/unmod/mr/phaser/build/shelxe/shelxe_phaser_loc0_ALL_c1_t34_r1_polyAla_UNMOD.mtz'
p2011
sS'SHELXE_phsout'
p2012
S'/opt/ample.git/examples/toxd-example/AMPLE_0/MRBUMP/search_c1_t34_r1_polyAla_mrbump/data/loc0_ALL_c1_t34_r1_polyAla/unmod/mr/phaser/build/shelxe/shelxe_phaser_loc0_ALL_c1_t34_r1_polyAla_UNMOD.phs'
p2013
sa(dp2014
S'BUCC_mtzout'
p2015
S'/opt/ample.git/examples/toxd-example/AMPLE_0/MRBUMP/search_c1_t14_r1_polyAla_mrbump/data/loc0_ALL_c1_t14_r1_polyAla/unmod/mr/phaser/build/buccaneer/buccaneer_pipeline/refined.mtz'
p2016
sS'SHELXE_logfile'
p2017
S'/opt/ample.git/examples/toxd-example/AMPLE_0/MRBUMP/search_c1_t14_r1_polyAla_mrbump/data/loc0_ALL_c1_t14_r1_polyAla/unmod/mr/phaser/build/shelxe/shelxe_run.log'
p2018
sS'Solution_Type'
p2019
S'POOR'
p2020
sS'PHASER_killed'
p2021
I00
sS'BUCC_final_Rfact'
p2022
F0.53859999999999997
sS'PHASER_time'
p2023
F61.840000000000003
sg213
S'c1_t14_r1_polyAla'
p2024
sS'SHELXE_wMPE'
p2025
NsS'PHASER_TFZ'
p2026
F5.7999999999999998
sS'SHELXE_os'
p2027
NsS'PHASER_RFZ'
p2028
F2.2999999999999998
sS'BUCC_final_Rfree'
p2029
F0.57279999999999998
sS'MOLREP_score'
p2030
NsS'SearchModel_name'
p2031
S'loc0_ALL_c1_t14_r1_polyAla_UNMOD'
p2032
sS'SXRARP_version'
p2033
NsS'ARP_pdbout'
p2034
NsS'PHASER_LLG'
p2035
F25
sS'BUCC_version'
p2036
S'1.6.4'
p2037
sg228
F0.57010000000000005
sS'SXRBUCC_final_Rfact'
p2038
NsS'SXRARP_pdbout'
p2039
NsS'PHASER_version'
p2040
S'2.7.17'
p2041
sS'REFMAC_logfile'
p2042
S'/opt/ample.git/examples/toxd-example/AMPLE_0/MRBUMP/search_c1_t14_r1_polyAla_mrbump/data/loc0_ALL_c1_t14_r1_polyAla/unmod/mr/phaser/refine/refmac_phaser_loc0_ALL_c1_t14_r1_polyAla_UNMOD.log'
p2043
sS'Search_directory'
p2044
S'/opt/ample.git/examples/toxd-example/AMPLE_0/MRBUMP/search_c1_t14_r1_polyAla_mrbump'
p2045
sS'SHELXE_pdbout'
p2046
S'/opt/ample.git/examples/toxd-example/AMPLE_0/MRBUMP/search_c1_t14_r1_polyAla_mrbump/data/loc0_ALL_c1_t14_r1_polyAla/unmod/mr/phaser/build/shelxe/shelxe_phaser_loc0_ALL_c1_t14_r1_polyAla_UNMOD.pdb'
p2047
sS'ARP_logfile'
p2048
NsS'MOLREP_logfile'
p2049
NsS'REFMAC_version'
p2050
S'5.8.0158'
p2051
sS'SXRBUCC_mtzout'
p2052
NsS'SHELXE_NC'
p2053
I3
sS'SXRBUCC_logfile'
p2054
NsS'STATUS'
p2055
S'Finished'
p2056
sS'ARP_version'
p2057
NsS'SHELXE_MCL'
p2058
I6
sS'SXRARP_logfile'
p2059
NsS'SHELXE_ACL'
p2060
I5
sg252
F0.59289999999999998
sS'MOLREP_pdbout'
p2061
NsS'MOLREP_version'
p2062
NsS'SHELXE_time'
p2063
F741.54999999999995
sS'REFMAC_pdbout'
p2064
S'/opt/ample.git/examples/toxd-example/AMPLE_0/MRBUMP/search_c1_t14_r1_polyAla_mrbump/data/loc0_ALL_c1_t14_r1_polyAla/unmod/mr/phaser/refine/refmac_phaser_loc0_ALL_c1_t14_r1_polyAla_UNMOD.pdb'
p2065
sS'SXRBUCC_pdbout'
p2066
NsS'SHELXE_CC'
p2067
F10.98
sS'SXRARP_final_Rfact'
p2068
NsS'SXRBUCC_version'
p2069
NsS'MOLREP_time'
p2070
NsS'PHASER_logfile'
p2071
S'/opt/ample.git/examples/toxd-example/AMPLE_0/MRBUMP/search_c1_t14_r1_polyAla_mrbump/data/loc0_ALL_c1_t14_r1_polyAla/unmod/mr/phaser/phaser_loc0_ALL_c1_t14_r1_polyAla_UNMOD.log'
p2072
sg265
S'loc0_ALL_c1_t14_r1_polyAla_UNMOD'
p2073
sS'BUCC_logfile'
p2074
S'/opt/ample.git/examples/toxd-example/AMPLE_0/MRBUMP/search_c1_t14_r1_polyAla_mrbump/data/loc0_ALL_c1_t14_r1_polyAla/unmod/mr/phaser/build/buccaneer/buccaneer_run.log'
p2075
sS'PHASER_mtzout'
p2076
S'/opt/ample.git/examples/toxd-example/AMPLE_0/MRBUMP/search_c1_t14_r1_polyAla_mrbump/data/loc0_ALL_c1_t14_r1_polyAla/unmod/mr/phaser/phaser_loc0_ALL_c1_t14_r1_polyAla_UNMOD.1.mtz'
p2077
sS'ARP_final_Rfact'
p2078
NsS'SXRARP_mtzout'
p2079
NsS'ARP_final_Rfree'
p2080
NsS'PHASER_error'
p2081
NsS'SXRBUCC_final_Rfree'
p2082
NsS'ARP_mtzout'
p2083
NsS'SHELXE_version'
p2084
S'2016/3'
p2085
sg279
S'PHASER'
p2086
sS'PHASER_pdbout'
p2087
S'/opt/ample.git/examples/toxd-example/AMPLE_0/MRBUMP/search_c1_t14_r1_polyAla_mrbump/data/loc0_ALL_c1_t14_r1_polyAla/unmod/mr/phaser/phaser_loc0_ALL_c1_t14_r1_polyAla_UNMOD.1.pdb'
p2088
sS'Job_directory'
p2089
S'/opt/ample.git/examples/toxd-example/AMPLE_0/MRBUMP/search_c1_t14_r1_polyAla_mrbump/data/loc0_ALL_c1_t14_r1_polyAla/unmod/mr/phaser'
p2090
sS'BUCC_pdbout'
p2091
S'/opt/ample.git/examples/toxd-example/AMPLE_0/MRBUMP/search_c1_t14_r1_polyAla_mrbump/data/loc0_ALL_c1_t14_r1_polyAla/unmod/mr/phaser/build/buccaneer/buccaneer_pipeline/refined.pdb'
p2092
sS'SXRARP_final_Rfree'
p2093
NsS'REFMAC_mtzout'
p2094
S'/opt/ample.git/examples/toxd-example/AMPLE_0/MRBUMP/search_c1_t14_r1_polyAla_mrbump/data/loc0_ALL_c1_t14_r1_polyAla/unmod/mr/phaser/refine/refmac_phaser_HKLOUT_loc0_ALL_c1_t14_r1_polyAla_UNMOD.mtz'
p2095
sS'SHELXE_mtzout'
p2096
S'/opt/ample.git/examples/toxd-example/AMPLE_0/MRBUMP/search_c1_t14_r1_polyAla_mrbump/data/loc0_ALL_c1_t14_r1_polyAla/unmod/mr/phaser/build/shelxe/shelxe_phaser_loc0_ALL_c1_t14_r1_polyAla_UNMOD.mtz'
p2097
sS'SHELXE_phsout'
p2098
S'/opt/ample.git/examples/toxd-example/AMPLE_0/MRBUMP/search_c1_t14_r1_polyAla_mrbump/data/loc0_ALL_c1_t14_r1_polyAla/unmod/mr/phaser/build/shelxe/shelxe_phaser_loc0_ALL_c1_t14_r1_polyAla_UNMOD.phs'
p2099
sa(dp2100
S'BUCC_mtzout'
p2101
S'/opt/ample.git/examples/toxd-example/AMPLE_0/MRBUMP/search_c1_t29_r1_polyAla_mrbump/data/loc0_ALL_c1_t29_r1_polyAla/unmod/mr/phaser/build/buccaneer/buccaneer_pipeline/refined.mtz'
p2102
sS'SHELXE_logfile'
p2103
S'/opt/ample.git/examples/toxd-example/AMPLE_0/MRBUMP/search_c1_t29_r1_polyAla_mrbump/data/loc0_ALL_c1_t29_r1_polyAla/unmod/mr/phaser/build/shelxe/shelxe_run.log'
p2104
sS'Solution_Type'
p2105
S'POOR'
p2106
sS'PHASER_killed'
p2107
I00
sS'BUCC_final_Rfact'
p2108
F1
sS'PHASER_time'
p2109
F58.350000000000001
sg213
S'c1_t29_r1_polyAla'
p2110
sS'SHELXE_wMPE'
p2111
NsS'PHASER_TFZ'
p2112
F6
sS'SHELXE_os'
p2113
NsS'PHASER_RFZ'
p2114
F3.3999999999999999
sS'BUCC_final_Rfree'
p2115
F1
sS'MOLREP_score'
p2116
NsS'SearchModel_name'
p2117
S'loc0_ALL_c1_t29_r1_polyAla_UNMOD'
p2118
sS'SXRARP_version'
p2119
NsS'ARP_pdbout'
p2120
NsS'PHASER_LLG'
p2121
F27
sS'BUCC_version'
p2122
S'1.6.4'
p2123
sg228
F0.56479999999999997
sS'SXRBUCC_final_Rfact'
p2124
NsS'SXRARP_pdbout'
p2125
NsS'PHASER_version'
p2126
S'2.7.17'
p2127
sS'REFMAC_logfile'
p2128
S'/opt/ample.git/examples/toxd-example/AMPLE_0/MRBUMP/search_c1_t29_r1_polyAla_mrbump/data/loc0_ALL_c1_t29_r1_polyAla/unmod/mr/phaser/refine/refmac_phaser_loc0_ALL_c1_t29_r1_polyAla_UNMOD.log'
p2129
sS'Search_directory'
p2130
S'/opt/ample.git/examples/toxd-example/AMPLE_0/MRBUMP/search_c1_t29_r1_polyAla_mrbump'
p2131
sS'SHELXE_pdbout'
p2132
S'/opt/ample.git/examples/toxd-example/AMPLE_0/MRBUMP/search_c1_t29_r1_polyAla_mrbump/data/loc0_ALL_c1_t29_r1_polyAla/unmod/mr/phaser/build/shelxe/shelxe_phaser_loc0_ALL_c1_t29_r1_polyAla_UNMOD.pdb'
p2133
sS'ARP_logfile'
p2134
NsS'MOLREP_logfile'
p2135
NsS'REFMAC_version'
p2136
S'5.8.0158'
p2137
sS'SXRBUCC_mtzout'
p2138
NsS'SHELXE_NC'
p2139
NsS'SXRBUCC_logfile'
p2140
NsS'STATUS'
p2141
S'Finished'
p2142
sS'ARP_version'
p2143
NsS'SHELXE_MCL'
p2144
NsS'SXRARP_logfile'
p2145
NsS'SHELXE_ACL'
p2146
Nsg252
F0.57140000000000002
sS'MOLREP_pdbout'
p2147
NsS'MOLREP_version'
p2148
NsS'SHELXE_time'
p2149
F523.60000000000002
sS'REFMAC_pdbout'
p2150
S'/opt/ample.git/examples/toxd-example/AMPLE_0/MRBUMP/search_c1_t29_r1_polyAla_mrbump/data/loc0_ALL_c1_t29_r1_polyAla/unmod/mr/phaser/refine/refmac_phaser_loc0_ALL_c1_t29_r1_polyAla_UNMOD.pdb'
p2151
sS'SXRBUCC_pdbout'
p2152
NsS'SHELXE_CC'
p2153
NsS'SXRARP_final_Rfact'
p2154
NsS'SXRBUCC_version'
p2155
NsS'MOLREP_time'
p2156
NsS'PHASER_logfile'
p2157
S'/opt/ample.git/examples/toxd-example/AMPLE_0/MRBUMP/search_c1_t29_r1_polyAla_mrbump/data/loc0_ALL_c1_t29_r1_polyAla/unmod/mr/phaser/phaser_loc0_ALL_c1_t29_r1_polyAla_UNMOD.log'
p2158
sg265
S'loc0_ALL_c1_t29_r1_polyAla_UNMOD'
p2159
sS'BUCC_logfile'
p2160
S'/opt/ample.git/examples/toxd-example/AMPLE_0/MRBUMP/search_c1_t29_r1_polyAla_mrbump/data/loc0_ALL_c1_t29_r1_polyAla/unmod/mr/phaser/build/buccaneer/buccaneer_run.log'
p2161
sS'PHASER_mtzout'
p2162
S'/opt/ample.git/examples/toxd-example/AMPLE_0/MRBUMP/search_c1_t29_r1_polyAla_mrbump/data/loc0_ALL_c1_t29_r1_polyAla/unmod/mr/phaser/phaser_loc0_ALL_c1_t29_r1_polyAla_UNMOD.1.mtz'
p2163
sS'ARP_final_Rfact'
p2164
NsS'SXRARP_mtzout'
p2165
NsS'ARP_final_Rfree'
p2166
NsS'PHASER_error'
p2167
NsS'SXRBUCC_final_Rfree'
p2168
NsS'ARP_mtzout'
p2169
NsS'SHELXE_version'
p2170
S'2016/3'
p2171
sg279
S'PHASER'
p2172
sS'PHASER_pdbout'
p2173
S'/opt/ample.git/examples/toxd-example/AMPLE_0/MRBUMP/search_c1_t29_r1_polyAla_mrbump/data/loc0_ALL_c1_t29_r1_polyAla/unmod/mr/phaser/phaser_loc0_ALL_c1_t29_r1_polyAla_UNMOD.1.pdb'
p2174
sS'Job_directory'
p2175
S'/opt/ample.git/examples/toxd-example/AMPLE_0/MRBUMP/search_c1_t29_r1_polyAla_mrbump/data/loc0_ALL_c1_t29_r1_polyAla/unmod/mr/phaser'
p2176
sS'BUCC_pdbout'
p2177
S'/opt/ample.git/examples/toxd-example/AMPLE_0/MRBUMP/search_c1_t29_r1_polyAla_mrbump/data/loc0_ALL_c1_t29_r1_polyAla/unmod/mr/phaser/build/buccaneer/buccaneer_pipeline/refined.pdb'
p2178
sS'SXRARP_final_Rfree'
p2179
NsS'REFMAC_mtzout'
p2180
S'/opt/ample.git/examples/toxd-example/AMPLE_0/MRBUMP/search_c1_t29_r1_polyAla_mrbump/data/loc0_ALL_c1_t29_r1_polyAla/unmod/mr/phaser/refine/refmac_phaser_HKLOUT_loc0_ALL_c1_t29_r1_polyAla_UNMOD.mtz'
p2181
sS'SHELXE_mtzout'
p2182
S'/opt/ample.git/examples/toxd-example/AMPLE_0/MRBUMP/search_c1_t29_r1_polyAla_mrbump/data/loc0_ALL_c1_t29_r1_polyAla/unmod/mr/phaser/build/shelxe/shelxe_phaser_loc0_ALL_c1_t29_r1_polyAla_UNMOD.mtz'
p2183
sS'SHELXE_phsout'
p2184
S'/opt/ample.git/examples/toxd-example/AMPLE_0/MRBUMP/search_c1_t29_r1_polyAla_mrbump/data/loc0_ALL_c1_t29_r1_polyAla/unmod/mr/phaser/build/shelxe/shelxe_phaser_loc0_ALL_c1_t29_r1_polyAla_UNMOD.phs'
p2185
sa(dp2186
S'BUCC_mtzout'
p2187
NsS'SHELXE_logfile'
p2188
NsS'Solution_Type'
p2189
S'no_job_directory'
p2190
sS'PHASER_killed'
p2191
NsS'ARP_version'
p2192
NsS'PHASER_time'
p2193
NsS'ARP_final_Rfree'
p2194
NsS'SHELXE_wMPE'
p2195
NsS'SHELXE_phsout'
p2196
NsS'PHASER_TFZ'
p2197
NsS'SHELXE_pdbout'
p2198
NsS'MOLREP_time'
p2199
NsS'BUCC_final_Rfree'
p2200
NsS'MOLREP_score'
p2201
NsS'SXRARP_version'
p2202
NsS'SXRBUCC_final_Rfree'
p2203
NsS'SXRARP_final_Rfact'
p2204
NsS'PHASER_LLG'
p2205
NsS'BUCC_version'
p2206
NsS'SHELXE_mtzout'
p2207
NsS'SXRBUCC_final_Rfact'
p2208
NsS'SXRARP_pdbout'
p2209
NsS'PHASER_version'
p2210
NsS'REFMAC_logfile'
p2211
NsS'Search_directory'
p2212
S'/opt/ample.git/examples/toxd-example/AMPLE_0/MRBUMP/search_c1_t85_r1_polyAla_mrbump'
p2213
sS'SHELXE_os'
p2214
NsS'ARP_logfile'
p2215
NsS'SXRBUCC_logfile'
p2216
NsS'SXRBUCC_mtzout'
p2217
NsS'MOLREP_logfile'
p2218
NsS'REFMAC_version'
p2219
NsS'PHASER_mtzout'
p2220
NsS'MR_directory'
p2221
NsS'SHELXE_NC'
p2222
NsS'REFMAC_mtzout'
p2223
Nsg228
NsS'SXRBUCC_version'
p2224
NsS'SXRARP_logfile'
p2225
NsS'SHELXE_ACL'
p2226
NsS'MOLREP_pdbout'
p2227
NsS'MOLREP_version'
p2228
NsS'REFMAC_pdbout'
p2229
NsS'SXRBUCC_pdbout'
p2230
NsS'SHELXE_CC'
p2231
NsS'ARP_pdbout'
p2232
NsS'SHELXE_time'
p2233
NsS'PHASER_RFZ'
p2234
NsS'PHASER_logfile'
p2235
Nsg265
S'loc0_ALL_c1_t85_r1_polyAla_UNMOD'
p2236
sS'BUCC_logfile'
p2237
NsS'SHELXE_MCL'
p2238
NsS'ARP_final_Rfact'
p2239
NsS'SXRARP_mtzout'
p2240
Nsg213
S'c1_t85_r1_polyAla'
p2241
sg252
NsS'PHASER_error'
p2242
NsS'ARP_mtzout'
p2243
NsS'SHELXE_version'
p2244
NsS'PHASER_pdbout'
p2245
NsS'BUCC_pdbout'
p2246
NsS'SXRARP_final_Rfree'
p2247
NsS'BUCC_final_Rfact'
p2248
Nsg279
Nsa(dp2249
g2187
Nsg2188
Nsg2189
g2190
sg2191
Nsg2192
Nsg2193
Nsg2194
Nsg2195
Nsg2196
Nsg2197
Nsg2198
Nsg2199
Nsg2200
Nsg2201
Nsg2202
Nsg2203
Nsg2204
Nsg2205
Nsg2206
Nsg2207
Nsg2208
Nsg2209
Nsg2210
Nsg2211
Nsg2212
S'/opt/ample.git/examples/toxd-example/AMPLE_0/MRBUMP/search_c1_t85_r3_polyAla_mrbump'
p2250
sg2214
Nsg2215
Nsg2216
Nsg2217
Nsg2218
Nsg2219
Nsg2220
Nsg2221
Nsg2222
Nsg2223
Nsg228
Nsg2224
Nsg2225
Nsg2226
Nsg2227
Nsg2228
Nsg2229
Nsg2230
Nsg2231
Nsg2232
Nsg2233
Nsg2234
Nsg2235
Nsg265
S'loc0_ALL_c1_t85_r3_polyAla_UNMOD'
p2251
sg2237
Nsg2238
Nsg2239
Nsg2240
Nsg213
S'c1_t85_r3_polyAla'
p2252
sg252
Nsg2242
Nsg2243
Nsg2244
Nsg2245
Nsg2246
Nsg2247
Nsg2248
Nsg279
Nsa(dp2253
g2187
Nsg2188
Nsg2189
g2190
sg2191
Nsg2192
Nsg2193
Nsg2194
Nsg2195
Nsg2196
Nsg2197
Nsg2198
Nsg2199
Nsg2200
Nsg2201
Nsg2202
Nsg2203
Nsg2204
Nsg2205
Nsg2206
Nsg2207
Nsg2208
Nsg2209
Nsg2210
Nsg2211
Nsg2212
S'/opt/ample.git/examples/toxd-example/AMPLE_0/MRBUMP/search_c1_t90_r3_polyAla_mrbump'
p2254
sg2214
Nsg2215
Nsg2216
Nsg2217
Nsg2218
Nsg2219
Nsg2220
Nsg2221
Nsg2222
Nsg2223
Nsg228
Nsg2224
Nsg2225
Nsg2226
Nsg2227
Nsg2228
Nsg2229
Nsg2230
Nsg2231
Nsg2232
Nsg2233
Nsg2234
Nsg2235
Nsg265
S'loc0_ALL_c1_t90_r3_polyAla_UNMOD'
p2255
sg2237
Nsg2238
Nsg2239
Nsg2240
Nsg213
S'c1_t90_r3_polyAla'
p2256
sg252
Nsg2242
Nsg2243
Nsg2244
Nsg2245
Nsg2246
Nsg2247
Nsg2248
Nsg279
Nsa(dp2257
g2187
Nsg2188
Nsg2189
g2190
sg2191
Nsg2192
Nsg2193
Nsg2194
Nsg2195
Nsg2196
Nsg2197
Nsg2198
Nsg2199
Nsg2200
Nsg2201
Nsg2202
Nsg2203
Nsg2204
Nsg2205
Nsg2206
Nsg2207
Nsg2208
Nsg2209
Nsg2210
Nsg2211
Nsg2212
S'/opt/ample.git/examples/toxd-example/AMPLE_0/MRBUMP/search_c1_t80_r3_polyAla_mrbump'
p2258
sg2214
Nsg2215
Nsg2216
Nsg2217
Nsg2218
Nsg2219
Nsg2220
Nsg2221
Nsg2222
Nsg2223
Nsg228
Nsg2224
Nsg2225
Nsg2226
Nsg2227
Nsg2228
Nsg2229
Nsg2230
Nsg2231
Nsg2232
Nsg2233
Nsg2234
Nsg2235
Nsg265
S'loc0_ALL_c1_t80_r3_polyAla_UNMOD'
p2259
sg2237
Nsg2238
Nsg2239
Nsg2240
Nsg213
S'c1_t80_r3_polyAla'
p2260
sg252
Nsg2242
Nsg2243
Nsg2244
Nsg2245
Nsg2246
Nsg2247
Nsg2248
Nsg279
Nsa(dp2261
g2187
Nsg2188
Nsg2189
g2190
sg2191
Nsg2192
Nsg2193
Nsg2194
Nsg2195
Nsg2196
Nsg2197
Nsg2198
Nsg2199
Nsg2200
Nsg2201
Nsg2202
Nsg2203
Nsg2204
Nsg2205
Nsg2206
Nsg2207
Nsg2208
Nsg2209
Nsg2210
Nsg2211
Nsg2212
S'/opt/ample.git/examples/toxd-example/AMPLE_0/MRBUMP/search_c1_t95_r3_polyAla_mrbump'
p2262
sg2214
Nsg2215
Nsg2216
Nsg2217
Nsg2218
Nsg2219
Nsg2220
Nsg2221
Nsg2222
Nsg2223
Nsg228
Nsg2224
Nsg2225
Nsg2226
Nsg2227
Nsg2228
Nsg2229
Nsg2230
Nsg2231
Nsg2232
Nsg2233
Nsg2234
Nsg2235
Nsg265
S'loc0_ALL_c1_t95_r3_polyAla_UNMOD'
p2263
sg2237
Nsg2238
Nsg2239
Nsg2240
Nsg213
S'c1_t95_r3_polyAla'
p2264
sg252
Nsg2242
Nsg2243
Nsg2244
Nsg2245
Nsg2246
Nsg2247
Nsg2248
Nsg279
Nsa(dp2265
g2187
Nsg2188
Nsg2189
g2190
sg2191
Nsg2192
Nsg2193
Nsg2194
Nsg2195
Nsg2196
Nsg2197
Nsg2198
Nsg2199
Nsg2200
Nsg2201
Nsg2202
Nsg2203
Nsg2204
Nsg2205
Nsg2206
Nsg2207
Nsg2208
Nsg2209
Nsg2210
Nsg2211
Nsg2212
S'/opt/ample.git/examples/toxd-example/AMPLE_0/MRBUMP/search_c1_t90_r1_polyAla_mrbump'
p2266
sg2214
Nsg2215
Nsg2216
Nsg2217
Nsg2218
Nsg2219
Nsg2220
Nsg2221
Nsg2222
Nsg2223
Nsg228
Nsg2224
Nsg2225
Nsg2226
Nsg2227
Nsg2228
Nsg2229
Nsg2230
Nsg2231
Nsg2232
Nsg2233
Nsg2234
Nsg2235
Nsg265
S'loc0_ALL_c1_t90_r1_polyAla_UNMOD'
p2267
sg2237
Nsg2238
Nsg2239
Nsg2240
Nsg213
S'c1_t90_r1_polyAla'
p2268
sg252
Nsg2242
Nsg2243
Nsg2244
Nsg2245
Nsg2246
Nsg2247
Nsg2248
Nsg279
Nsa(dp2269
g2187
Nsg2188
Nsg2189
g2190
sg2191
Nsg2192
Nsg2193
Nsg2194
Nsg2195
Nsg2196
Nsg2197
Nsg2198
Nsg2199
Nsg2200
Nsg2201
Nsg2202
Nsg2203
Nsg2204
Nsg2205
Nsg2206
Nsg2207
Nsg2208
Nsg2209
Nsg2210
Nsg2211
Nsg2212
S'/opt/ample.git/examples/toxd-example/AMPLE_0/MRBUMP/search_c1_t100_r3_polyAla_mrbump'
p2270
sg2214
Nsg2215
Nsg2216
Nsg2217
Nsg2218
Nsg2219
Nsg2220
Nsg2221
Nsg2222
Nsg2223
Nsg228
Nsg2224
Nsg2225
Nsg2226
Nsg2227
Nsg2228
Nsg2229
Nsg2230
Nsg2231
Nsg2232
Nsg2233
Nsg2234
Nsg2235
Nsg265
S'loc0_ALL_c1_t100_r3_polyAla_UNMOD'
p2271
sg2237
Nsg2238
Nsg2239
Nsg2240
Nsg213
S'c1_t100_r3_polyAla'
p2272
sg252
Nsg2242
Nsg2243
Nsg2244
Nsg2245
Nsg2246
Nsg2247
Nsg2248
Nsg279
NsasS'rosetta_db'
p2273
NsS'use_scwrl'
p2274
I00
sS'homolog_aligner'
p2275
S'gesamt'
p2276
sS'buccaneer_cycles'
p2277
I5
sS'nmr_remodel'
p2278
I00
sS'ccp4i2'
p2279
I00
sS'FREE'
p2280
S'FreeR_flag'
p2281
sS'molrep_only'
p2282
I00
sS'quark_models'
p2283
I00
sS'mtz'
p2284
S'/opt/ample.git/examples/toxd-example/input/1dtx.mtz'
p2285
sS'subselect_mode'
p2286
NsS'cmdline_flags'
p2287
(lp2288
S'ccp4i2'
p2289
aS'mtz'
p2290
aS'fasta'
p2291
aS'models'
p2292
aS'nproc'
p2293
asS'rg_reweight'
p2294
NsS'contact_file'
p2295
NsS'ensemble_ok'
p2296
S'/opt/ample.git/examples/toxd-example/AMPLE_0/ensemble.ok'
p2297
sS'purge'
p2298
I00
sS'use_contacts'
p2299
I00
sS'gesamt_exe'
p2300
S'/opt/ccp4/ccp4-7.0/bin/gesamt'
p2301
sS'mustang_exe'
p2302
NsS'ensembles_data'
p2303
(lp2304
(dp2305
S'truncation_variance'
p2306
F25.99831
sS'truncation_method'
p2307
g95
sS'subcluster_centroid_model'
p2308
S'/opt/ample.git/examples/toxd-example/AMPLE_0/ensemble_workdir/cluster_1/tlevel_100/5_S_00000005_100.pdb'
p2309
sS'subcluster_radius_threshold'
p2310
I3
sS'ensemble_num_atoms'
p2311
I290
sS'truncation_level'
p2312
I100
sS'subcluster_score'
p2313
cnumpy.core.multiarray
scalar
p2314
(cnumpy
dtype
p2315
(S'f8'
I0
I1
tRp2316
(I3
S'<'
NNNI-1
I-1
I0
tbS'5v\xec\x14i\xc2\x0e@'
tRp2317
sS'cluster_method'
p2318
S'spicker'
p2319
sS'truncation_percent'
p2320
I5
sS'num_residues'
p2321
I59
sS'truncation_score_key'
p2322
NsS'cluster_centroid'
p2323
S'/opt/ample.git/testfiles/models/5_S_00000005.pdb'
p2324
sg265
S'c1_t100_r3_polyAla'
p2325
sS'side_chain_treatment'
p2326
g192
sS'cluster_num_models'
p2327
I13
sS'subcluster_num_models'
p2328
I7
sS'cluster_score_type'
p2329
NsS'truncation_dir'
p2330
S'/opt/ample.git/examples/toxd-example/AMPLE_0/ensemble_workdir/cluster_1/tlevel_100'
p2331
sS'truncation_residues'
p2332
(lp2333
I1
aI2
aI3
aI4
aI5
aI6
aI7
aI8
aI9
aI10
aI11
aI12
aI13
aI14
aI15
aI16
aI17
aI18
aI19
aI20
aI21
aI22
aI23
aI24
aI25
aI26
aI27
aI28
aI29
aI30
aI31
aI32
aI33
aI34
aI35
aI36
aI37
aI38
aI39
aI40
aI41
aI42
aI43
aI44
aI45
aI46
aI47
aI48
aI49
aI50
aI51
aI52
aI53
aI54
aI55
aI56
aI57
aI58
aI59
asS'num_clusters'
p2334
I10
sS'cluster_num'
p2335
I1
sS'pdb'
p2336
g132
sa(dp2337
g2306
F8.6850640000000006
sg2307
g95
sg2308
S'/opt/ample.git/examples/toxd-example/AMPLE_0/ensemble_workdir/cluster_1/tlevel_95/5_S_00000005_95.pdb'
p2338
sg2310
I3
sg2311
I275
sg2312
I95
sg2313
g2314
(g2316
S'qrC|\xf5S\x0b@'
tRp2339
sg2318
g2319
sg2320
I5
sg2321
I56
sg2322
Nsg2323
g2324
sg265
S'c1_t95_r3_polyAla'
p2340
sg2326
g192
sg2327
I13
sg2328
I11
sg2329
Nsg2330
S'/opt/ample.git/examples/toxd-example/AMPLE_0/ensemble_workdir/cluster_1/tlevel_95'
p2341
sg2332
(lp2342
I4
aI5
aI6
aI7
aI8
aI9
aI10
aI11
aI12
aI13
aI14
aI15
aI16
aI17
aI18
aI19
aI20
aI21
aI22
aI23
aI24
aI25
aI26
aI27
aI28
aI29
aI30
aI31
aI32
aI33
aI34
aI35
aI36
aI37
aI38
aI39
aI40
aI41
aI42
aI43
aI44
aI45
aI46
aI47
aI48
aI49
aI50
aI51
aI52
aI53
aI54
aI55
aI56
aI57
aI58
aI59
asg2334
I10
sg2335
I1
sg2336
g133
sa(dp2343
g2306
F4.1117780000000002
sg2307
g95
sg2308
S'/opt/ample.git/examples/toxd-example/AMPLE_0/ensemble_workdir/cluster_1/tlevel_90/5_S_00000005_90.pdb'
p2344
sg2310
I1
sg2311
I261
sg2312
I90
sg2313
g2314
(g2316
S'R,T\x8a_\xe9\xf2?'
tRp2345
sg2318
g2319
sg2320
I5
sg2321
I53
sg2322
Nsg2323
g2324
sg265
S'c1_t90_r1_polyAla'
p2346
sg2326
g192
sg2327
I13
sg2328
I3
sg2329
Nsg2330
S'/opt/ample.git/examples/toxd-example/AMPLE_0/ensemble_workdir/cluster_1/tlevel_90'
p2347
sg2332
(lp2348
I6
aI7
aI8
aI9
aI10
aI11
aI12
aI13
aI14
aI15
aI16
aI17
aI18
aI19
aI20
aI21
aI22
aI23
aI24
aI25
aI26
aI27
aI28
aI29
aI30
aI31
aI32
aI33
aI34
aI35
aI36
aI37
aI38
aI39
aI40
aI41
aI42
aI43
aI44
aI45
aI46
aI47
aI48
aI49
aI50
aI51
aI52
aI53
aI54
aI55
aI56
aI57
aI58
asg2334
I10
sg2335
I1
sg2336
g134
sa(dp2349
g2306
F4.1117780000000002
sg2307
g95
sg2308
S'/opt/ample.git/examples/toxd-example/AMPLE_0/ensemble_workdir/cluster_1/tlevel_90/5_S_00000005_90.pdb'
p2350
sg2310
I3
sg2311
I261
sg2312
I90
sg2313
g2314
(g2316
S'\xa3\x8e\x12\xe45\xf9\t@'
tRp2351
sg2318
g2319
sg2320
I5
sg2321
I53
sg2322
Nsg2323
g2324
sg265
S'c1_t90_r3_polyAla'
p2352
sg2326
g192
sg2327
I13
sg2328
I12
sg2329
Nsg2330
g2347
sg2332
(lp2353
I6
aI7
aI8
aI9
aI10
aI11
aI12
aI13
aI14
aI15
aI16
aI17
aI18
aI19
aI20
aI21
aI22
aI23
aI24
aI25
aI26
aI27
aI28
aI29
aI30
aI31
aI32
aI33
aI34
aI35
aI36
aI37
aI38
aI39
aI40
aI41
aI42
aI43
aI44
aI45
aI46
aI47
aI48
aI49
aI50
aI51
aI52
aI53
aI54
aI55
aI56
aI57
aI58
asg2334
I10
sg2335
I1
sg2336
g135
sa(dp2354
g2306
F1.9865360000000001
sg2307
g95
sg2308
S'/opt/ample.git/examples/toxd-example/AMPLE_0/ensemble_workdir/cluster_1/tlevel_85/5_S_00000005_85.pdb'
p2355
sg2310
I1
sg2311
I246
sg2312
I85
sg2313
g2314
(g2316
S'e\xd4J[;\xa5\xf0?'
tRp2356
sg2318
g2319
sg2320
I5
sg2321
I50
sg2322
Nsg2323
g2324
sg265
S'c1_t85_r1_polyAla'
p2357
sg2326
g192
sg2327
I13
sg2328
I3
sg2329
Nsg2330
S'/opt/ample.git/examples/toxd-example/AMPLE_0/ensemble_workdir/cluster_1/tlevel_85'
p2358
sg2332
(lp2359
I8
aI9
aI10
aI11
aI12
aI13
aI14
aI15
aI16
aI17
aI18
aI19
aI20
aI21
aI22
aI23
aI24
aI25
aI26
aI27
aI28
aI29
aI30
aI31
aI32
aI33
aI34
aI35
aI36
aI37
aI38
aI39
aI40
aI41
aI42
aI43
aI44
aI45
aI46
aI47
aI48
aI49
aI50
aI51
aI52
aI53
aI54
aI55
aI56
aI57
asg2334
I10
sg2335
I1
sg2336
g136
sa(dp2360
g2306
F1.9865360000000001
sg2307
g95
sg2308
S'/opt/ample.git/examples/toxd-example/AMPLE_0/ensemble_workdir/cluster_1/tlevel_85/5_S_00000005_85.pdb'
p2361
sg2310
I3
sg2311
I246
sg2312
I85
sg2313
g2314
(g2316
S'\xb0\xca"\xa0\x04\xc6\x08@'
tRp2362
sg2318
g2319
sg2320
I5
sg2321
I50
sg2322
Nsg2323
g2324
sg265
S'c1_t85_r3_polyAla'
p2363
sg2326
g192
sg2327
I13
sg2328
I12
sg2329
Nsg2330
g2358
sg2332
(lp2364
I8
aI9
aI10
aI11
aI12
aI13
aI14
aI15
aI16
aI17
aI18
aI19
aI20
aI21
aI22
aI23
aI24
aI25
aI26
aI27
aI28
aI29
aI30
aI31
aI32
aI33
aI34
aI35
aI36
aI37
aI38
aI39
aI40
aI41
aI42
aI43
aI44
aI45
aI46
aI47
aI48
aI49
aI50
aI51
aI52
aI53
aI54
aI55
aI56
aI57
asg2334
I10
sg2335
I1
sg2336
g137
sa(dp2365
g2306
F1.728359
sg2307
g95
sg2308
S'/opt/ample.git/examples/toxd-example/AMPLE_0/ensemble_workdir/cluster_1/tlevel_80/5_S_00000005_80.pdb'
p2366
sg2310
I1
sg2311
I231
sg2312
I80
sg2313
g2314
(g2316
S"\xb9'\x9b\xb4\xa1\t\xf3?"
tRp2367
sg2318
g2319
sg2320
I5
sg2321
I47
sg2322
Nsg2323
g2324
sg265
S'c1_t80_r1_polyAla'
p2368
sg2326
g192
sg2327
I13
sg2328
I4
sg2329
Nsg2330
S'/opt/ample.git/examples/toxd-example/AMPLE_0/ensemble_workdir/cluster_1/tlevel_80'
p2369
sg2332
(lp2370
I8
aI9
aI10
aI11
aI12
aI13
aI14
aI15
aI16
aI17
aI18
aI19
aI20
aI21
aI22
aI23
aI24
aI25
aI26
aI27
aI28
aI29
aI30
aI31
aI32
aI33
aI34
aI35
aI36
aI37
aI38
aI39
aI40
aI41
aI42
aI43
aI44
aI45
aI46
aI47
aI48
aI49
aI52
aI53
aI54
aI55
aI56
asg2334
I10
sg2335
I1
sg2336
g138
sa(dp2371
g2306
F1.728359
sg2307
g95
sg2308
S'/opt/ample.git/examples/toxd-example/AMPLE_0/ensemble_workdir/cluster_1/tlevel_80/5_S_00000005_80.pdb'
p2372
sg2310
I3
sg2311
I231
sg2312
I80
sg2313
g2314
(g2316
S'\xf53Pt\xb8\xf9\x07@'
tRp2373
sg2318
g2319
sg2320
I5
sg2321
I47
sg2322
Nsg2323
g2324
sg265
S'c1_t80_r3_polyAla'
p2374
sg2326
g192
sg2327
I13
sg2328
I12
sg2329
Nsg2330
g2369
sg2332
(lp2375
I8
aI9
aI10
aI11
aI12
aI13
aI14
aI15
aI16
aI17
aI18
aI19
aI20
aI21
aI22
aI23
aI24
aI25
aI26
aI27
aI28
aI29
aI30
aI31
aI32
aI33
aI34
aI35
aI36
aI37
aI38
aI39
aI40
aI41
aI42
aI43
aI44
aI45
aI46
aI47
aI48
aI49
aI52
aI53
aI54
aI55
aI56
asg2334
I10
sg2335
I1
sg2336
g139
sa(dp2376
g2306
F1.7072499999999999
sg2307
g95
sg2308
S'/opt/ample.git/examples/toxd-example/AMPLE_0/ensemble_workdir/cluster_1/tlevel_75/5_S_00000005_75.pdb'
p2377
sg2310
I1
sg2311
I217
sg2312
I75
sg2313
g2314
(g2316
S'\x83\xae\x96\x9e]\x1c\xf2?'
tRp2378
sg2318
g2319
sg2320
I5
sg2321
I44
sg2322
Nsg2323
g2324
sg265
S'c1_t75_r1_polyAla'
p2379
sg2326
g192
sg2327
I13
sg2328
I4
sg2329
Nsg2330
S'/opt/ample.git/examples/toxd-example/AMPLE_0/ensemble_workdir/cluster_1/tlevel_75'
p2380
sg2332
(lp2381
I8
aI9
aI10
aI11
aI12
aI13
aI14
aI15
aI16
aI17
aI18
aI19
aI20
aI21
aI22
aI23
aI24
aI25
aI26
aI27
aI28
aI29
aI30
aI31
aI32
aI33
aI34
aI35
aI36
aI37
aI38
aI39
aI40
aI41
aI43
aI44
aI45
aI46
aI47
aI48
aI52
aI53
aI54
aI56
asg2334
I10
sg2335
I1
sg2336
g140
sa(dp2382
g2306
F1.7072499999999999
sg2307
g95
sg2308
S'/opt/ample.git/examples/toxd-example/AMPLE_0/ensemble_workdir/cluster_1/tlevel_75/5_S_00000005_75.pdb'
p2383
sg2310
I3
sg2311
I217
sg2312
I75
sg2313
g2314
(g2316
S'\x0f\x03\x02B\x90\xf8\x06@'
tRp2384
sg2318
g2319
sg2320
I5
sg2321
I44
sg2322
Nsg2323
g2324
sg265
S'c1_t75_r3_polyAla'
p2385
sg2326
g192
sg2327
I13
sg2328
I12
sg2329
Nsg2330
g2380
sg2332
(lp2386
I8
aI9
aI10
aI11
aI12
aI13
aI14
aI15
aI16
aI17
aI18
aI19
aI20
aI21
aI22
aI23
aI24
aI25
aI26
aI27
aI28
aI29
aI30
aI31
aI32
aI33
aI34
aI35
aI36
aI37
aI38
aI39
aI40
aI41
aI43
aI44
aI45
aI46
aI47
aI48
aI52
aI53
aI54
aI56
asg2334
I10
sg2335
I1
sg2336
g141
sa(dp2387
g2306
F1.5005230000000001
sg2307
g95
sg2308
S'/opt/ample.git/examples/toxd-example/AMPLE_0/ensemble_workdir/cluster_1/tlevel_69/5_S_00000005_69.pdb'
p2388
sg2310
I1
sg2311
I202
sg2312
I69
sg2313
g2314
(g2316
S'Z\xda\xe3df\x8f\xf1?'
tRp2389
sg2318
g2319
sg2320
I5
sg2321
I41
sg2322
Nsg2323
g2324
sg265
S'c1_t69_r1_polyAla'
p2390
sg2326
g192
sg2327
I13
sg2328
I4
sg2329
Nsg2330
S'/opt/ample.git/examples/toxd-example/AMPLE_0/ensemble_workdir/cluster_1/tlevel_69'
p2391
sg2332
(lp2392
I8
aI9
aI10
aI11
aI12
aI13
aI14
aI15
aI16
aI17
aI18
aI19
aI20
aI21
aI22
aI23
aI24
aI25
aI26
aI27
aI28
aI29
aI30
aI31
aI32
aI33
aI34
aI35
aI36
aI37
aI38
aI39
aI40
aI41
aI43
aI45
aI46
aI47
aI52
aI53
aI56
asg2334
I10
sg2335
I1
sg2336
g142
sa(dp2393
g2306
F1.5005230000000001
sg2307
g95
sg2308
S'/opt/ample.git/examples/toxd-example/AMPLE_0/ensemble_workdir/cluster_1/tlevel_69/5_S_00000005_69.pdb'
p2394
sg2310
I3
sg2311
I202
sg2312
I69
sg2313
g2314
(g2316
S'&\xdd\xf9\xf2\xc07\x05@'
tRp2395
sg2318
g2319
sg2320
I5
sg2321
I41
sg2322
Nsg2323
g2324
sg265
S'c1_t69_r3_polyAla'
p2396
sg2326
g192
sg2327
I13
sg2328
I12
sg2329
Nsg2330
g2391
sg2332
(lp2397
I8
aI9
aI10
aI11
aI12
aI13
aI14
aI15
aI16
aI17
aI18
aI19
aI20
aI21
aI22
aI23
aI24
aI25
aI26
aI27
aI28
aI29
aI30
aI31
aI32
aI33
aI34
aI35
aI36
aI37
aI38
aI39
aI40
aI41
aI43
aI45
aI46
aI47
aI52
aI53
aI56
asg2334
I10
sg2335
I1
sg2336
g143
sa(dp2398
g2306
F1.140171
sg2307
g95
sg2308
S'/opt/ample.git/examples/toxd-example/AMPLE_0/ensemble_workdir/cluster_1/tlevel_64/5_S_00000005_64.pdb'
p2399
sg2310
I1
sg2311
I187
sg2312
I64
sg2313
g2314
(g2316
S'I\xc4\xad\xe5BC\xf4?'
tRp2400
sg2318
g2319
sg2320
I5
sg2321
I38
sg2322
Nsg2323
g2324
sg265
S'c1_t64_r1_polyAla'
p2401
sg2326
g192
sg2327
I13
sg2328
I5
sg2329
Nsg2330
S'/opt/ample.git/examples/toxd-example/AMPLE_0/ensemble_workdir/cluster_1/tlevel_64'
p2402
sg2332
(lp2403
I10
aI11
aI12
aI13
aI14
aI15
aI16
aI17
aI18
aI19
aI20
aI21
aI22
aI23
aI24
aI25
aI26
aI27
aI28
aI29
aI30
aI31
aI32
aI33
aI34
aI35
aI36
aI37
aI38
aI39
aI40
aI41
aI43
aI45
aI46
aI47
aI52
aI53
asg2334
I10
sg2335
I1
sg2336
g144
sa(dp2404
g2306
F1.140171
sg2307
g95
sg2308
S'/opt/ample.git/examples/toxd-example/AMPLE_0/ensemble_workdir/cluster_1/tlevel_64/5_S_00000005_64.pdb'
p2405
sg2310
I3
sg2311
I187
sg2312
I64
sg2313
g2314
(g2316
S'\x99\x1b\xe3\xf5&\xb7\x04@'
tRp2406
sg2318
g2319
sg2320
I5
sg2321
I38
sg2322
Nsg2323
g2324
sg265
S'c1_t64_r3_polyAla'
p2407
sg2326
g192
sg2327
I13
sg2328
I12
sg2329
Nsg2330
g2402
sg2332
(lp2408
I10
aI11
aI12
aI13
aI14
aI15
aI16
aI17
aI18
aI19
aI20
aI21
aI22
aI23
aI24
aI25
aI26
aI27
aI28
aI29
aI30
aI31
aI32
aI33
aI34
aI35
aI36
aI37
aI38
aI39
aI40
aI41
aI43
aI45
aI46
aI47
aI52
aI53
asg2334
I10
sg2335
I1
sg2336
g145
sa(dp2409
g2306
F1.0517259999999999
sg2307
g95
sg2308
S'/opt/ample.git/examples/toxd-example/AMPLE_0/ensemble_workdir/cluster_1/tlevel_59/5_S_00000005_59.pdb'
p2410
sg2310
I1
sg2311
I173
sg2312
I59
sg2313
g2314
(g2316
S' \xa8C<L\x8a\xf1?'
tRp2411
sg2318
g2319
sg2320
I5
sg2321
I35
sg2322
Nsg2323
g2324
sg265
S'c1_t59_r1_polyAla'
p2412
sg2326
g192
sg2327
I13
sg2328
I5
sg2329
Nsg2330
S'/opt/ample.git/examples/toxd-example/AMPLE_0/ensemble_workdir/cluster_1/tlevel_59'
p2413
sg2332
(lp2414
I10
aI11
aI12
aI13
aI14
aI15
aI16
aI17
aI18
aI19
aI20
aI21
aI22
aI23
aI24
aI25
aI26
aI27
aI28
aI29
aI30
aI31
aI32
aI33
aI34
aI35
aI36
aI37
aI38
aI39
aI40
aI46
aI47
aI52
aI53
asg2334
I10
sg2335
I1
sg2336
g146
sa(dp2415
g2306
F1.0517259999999999
sg2307
g95
sg2308
S'/opt/ample.git/examples/toxd-example/AMPLE_0/ensemble_workdir/cluster_1/tlevel_59/5_S_00000005_59.pdb'
p2416
sg2310
I3
sg2311
I173
sg2312
I59
sg2313
g2314
(g2316
S'>a\x05\xcf\xefQ\x04@'
tRp2417
sg2318
g2319
sg2320
I5
sg2321
I35
sg2322
Nsg2323
g2324
sg265
S'c1_t59_r3_polyAla'
p2418
sg2326
g192
sg2327
I13
sg2328
I12
sg2329
Nsg2330
g2413
sg2332
(lp2419
I10
aI11
aI12
aI13
aI14
aI15
aI16
aI17
aI18
aI19
aI20
aI21
aI22
aI23
aI24
aI25
aI26
aI27
aI28
aI29
aI30
aI31
aI32
aI33
aI34
aI35
aI36
aI37
aI38
aI39
aI40
aI46
aI47
aI52
aI53
asg2334
I10
sg2335
I1
sg2336
g147
sa(dp2420
g2306
F0.79344000000000003
sg2307
g95
sg2308
S'/opt/ample.git/examples/toxd-example/AMPLE_0/ensemble_workdir/cluster_1/tlevel_54/5_S_00000005_54.pdb'
p2421
sg2310
I1
sg2311
I158
sg2312
I54
sg2313
g2314
(g2316
S'V\xd8\xebaX\xb3\xf0?'
tRp2422
sg2318
g2319
sg2320
I5
sg2321
I32
sg2322
Nsg2323
g2324
sg265
S'c1_t54_r1_polyAla'
p2423
sg2326
g192
sg2327
I13
sg2328
I6
sg2329
Nsg2330
S'/opt/ample.git/examples/toxd-example/AMPLE_0/ensemble_workdir/cluster_1/tlevel_54'
p2424
sg2332
(lp2425
I10
aI11
aI12
aI13
aI14
aI15
aI16
aI17
aI18
aI19
aI20
aI21
aI22
aI23
aI24
aI25
aI26
aI27
aI28
aI29
aI30
aI31
aI32
aI33
aI34
aI35
aI36
aI37
aI38
aI39
aI46
aI47
asg2334
I10
sg2335
I1
sg2336
g148
sa(dp2426
g2306
F0.79344000000000003
sg2307
g95
sg2308
S'/opt/ample.git/examples/toxd-example/AMPLE_0/ensemble_workdir/cluster_1/tlevel_54/5_S_00000005_54.pdb'
p2427
sg2310
I3
sg2311
I158
sg2312
I54
sg2313
g2314
(g2316
S'=z\x05\x9a\xb6\xfc\x00@'
tRp2428
sg2318
g2319
sg2320
I5
sg2321
I32
sg2322
Nsg2323
g2324
sg265
S'c1_t54_r3_polyAla'
p2429
sg2326
g192
sg2327
I13
sg2328
I12
sg2329
Nsg2330
g2424
sg2332
(lp2430
I10
aI11
aI12
aI13
aI14
aI15
aI16
aI17
aI18
aI19
aI20
aI21
aI22
aI23
aI24
aI25
aI26
aI27
aI28
aI29
aI30
aI31
aI32
aI33
aI34
aI35
aI36
aI37
aI38
aI39
aI46
aI47
asg2334
I10
sg2335
I1
sg2336
g149
sa(dp2431
g2306
F0.69771399999999995
sg2307
g95
sg2308
S'/opt/ample.git/examples/toxd-example/AMPLE_0/ensemble_workdir/cluster_1/tlevel_49/5_S_00000005_49.pdb'
p2432
sg2310
I1
sg2311
I143
sg2312
I49
sg2313
g2314
(g2316
S'\xdb\x9d\xdeZ`n\xf1?'
tRp2433
sg2318
g2319
sg2320
I5
sg2321
I29
sg2322
Nsg2323
g2324
sg265
S'c1_t49_r1_polyAla'
p2434
sg2326
g192
sg2327
I13
sg2328
I8
sg2329
Nsg2330
S'/opt/ample.git/examples/toxd-example/AMPLE_0/ensemble_workdir/cluster_1/tlevel_49'
p2435
sg2332
(lp2436
I11
aI12
aI14
aI15
aI16
aI17
aI18
aI19
aI20
aI21
aI22
aI23
aI24
aI25
aI26
aI27
aI28
aI29
aI30
aI31
aI32
aI33
aI34
aI35
aI36
aI37
aI38
aI39
aI47
asg2334
I10
sg2335
I1
sg2336
g150
sa(dp2437
g2306
F0.69771399999999995
sg2307
g95
sg2308
S'/opt/ample.git/examples/toxd-example/AMPLE_0/ensemble_workdir/cluster_1/tlevel_49/5_S_00000005_49.pdb'
p2438
sg2310
I3
sg2311
I143
sg2312
I49
sg2313
g2314
(g2316
S'G\xa7\x95\xdf\xf5\xfb\xfe?'
tRp2439
sg2318
g2319
sg2320
I5
sg2321
I29
sg2322
Nsg2323
g2324
sg265
S'c1_t49_r3_polyAla'
p2440
sg2326
g192
sg2327
I13
sg2328
I12
sg2329
Nsg2330
g2435
sg2332
(lp2441
I11
aI12
aI14
aI15
aI16
aI17
aI18
aI19
aI20
aI21
aI22
aI23
aI24
aI25
aI26
aI27
aI28
aI29
aI30
aI31
aI32
aI33
aI34
aI35
aI36
aI37
aI38
aI39
aI47
asg2334
I10
sg2335
I1
sg2336
g151
sa(dp2442
g2306
F0.577349
sg2307
g95
sg2308
S'/opt/ample.git/examples/toxd-example/AMPLE_0/ensemble_workdir/cluster_1/tlevel_44/5_S_00000005_44.pdb'
p2443
sg2310
I1
sg2311
I128
sg2312
I44
sg2313
g2314
(g2316
S'I\xa7\xc7\x1973\xf4?'
tRp2444
sg2318
g2319
sg2320
I5
sg2321
I26
sg2322
Nsg2323
g2324
sg265
S'c1_t44_r1_polyAla'
p2445
sg2326
g192
sg2327
I13
sg2328
I10
sg2329
Nsg2330
S'/opt/ample.git/examples/toxd-example/AMPLE_0/ensemble_workdir/cluster_1/tlevel_44'
p2446
sg2332
(lp2447
I11
aI12
aI14
aI16
aI18
aI19
aI20
aI21
aI22
aI23
aI24
aI25
aI26
aI27
aI28
aI29
aI30
aI31
aI32
aI33
aI34
aI35
aI36
aI37
aI38
aI39
asg2334
I10
sg2335
I1
sg2336
g152
sa(dp2448
g2306
F0.577349
sg2307
g95
sg2308
S'/opt/ample.git/examples/toxd-example/AMPLE_0/ensemble_workdir/cluster_1/tlevel_44/5_S_00000005_44.pdb'
p2449
sg2310
I3
sg2311
I128
sg2312
I44
sg2313
g2314
(g2316
S'\x95*\xee\xcb\xdbY\xfb?'
tRp2450
sg2318
g2319
sg2320
I5
sg2321
I26
sg2322
Nsg2323
g2324
sg265
S'c1_t44_r3_polyAla'
p2451
sg2326
g192
sg2327
I13
sg2328
I12
sg2329
Nsg2330
g2446
sg2332
(lp2452
I11
aI12
aI14
aI16
aI18
aI19
aI20
aI21
aI22
aI23
aI24
aI25
aI26
aI27
aI28
aI29
aI30
aI31
aI32
aI33
aI34
aI35
aI36
aI37
aI38
aI39
asg2334
I10
sg2335
I1
sg2336
g153
sa(dp2453
g2306
F0.43290499999999998
sg2307
g95
sg2308
S'/opt/ample.git/examples/toxd-example/AMPLE_0/ensemble_workdir/cluster_1/tlevel_39/5_S_00000005_39.pdb'
p2454
sg2310
I1
sg2311
I114
sg2312
I39
sg2313
g2314
(g2316
S'\xd3/\xf0`\xb4\x1c\xf4?'
tRp2455
sg2318
g2319
sg2320
I5
sg2321
I23
sg2322
Nsg2323
g2324
sg265
S'c1_t39_r1_polyAla'
p2456
sg2326
g192
sg2327
I13
sg2328
I11
sg2329
Nsg2330
S'/opt/ample.git/examples/toxd-example/AMPLE_0/ensemble_workdir/cluster_1/tlevel_39'
p2457
sg2332
(lp2458
I12
aI18
aI19
aI20
aI21
aI22
aI23
aI24
aI25
aI26
aI27
aI28
aI29
aI30
aI31
aI32
aI33
aI34
aI35
aI36
aI37
aI38
aI39
asg2334
I10
sg2335
I1
sg2336
g154
sa(dp2459
g2306
F0.43290499999999998
sg2307
g95
sg2308
S'/opt/ample.git/examples/toxd-example/AMPLE_0/ensemble_workdir/cluster_1/tlevel_39/5_S_00000005_39.pdb'
p2460
sg2310
I3
sg2311
I114
sg2312
I39
sg2313
g2314
(g2316
S';\xed!\xc8\xde\xde\xf6?'
tRp2461
sg2318
g2319
sg2320
I5
sg2321
I23
sg2322
Nsg2323
g2324
sg265
S'c1_t39_r3_polyAla'
p2462
sg2326
g192
sg2327
I13
sg2328
I12
sg2329
Nsg2330
g2457
sg2332
(lp2463
I12
aI18
aI19
aI20
aI21
aI22
aI23
aI24
aI25
aI26
aI27
aI28
aI29
aI30
aI31
aI32
aI33
aI34
aI35
aI36
aI37
aI38
aI39
asg2334
I10
sg2335
I1
sg2336
g155
sa(dp2464
g2306
F0.24867800000000001
sg2307
g95
sg2308
S'/opt/ample.git/examples/toxd-example/AMPLE_0/ensemble_workdir/cluster_1/tlevel_34/5_S_00000005_34.pdb'
p2465
sg2310
I1
sg2311
I100
sg2312
I34
sg2313
g2314
(g2316
S'\x91\x185F\x88\xbe\xf1?'
tRp2466
sg2318
g2319
sg2320
I5
sg2321
I20
sg2322
Nsg2323
g2324
sg265
S'c1_t34_r1_polyAla'
p2467
sg2326
g192
sg2327
I13
sg2328
I12
sg2329
Nsg2330
S'/opt/ample.git/examples/toxd-example/AMPLE_0/ensemble_workdir/cluster_1/tlevel_34'
p2468
sg2332
(lp2469
I18
aI19
aI20
aI21
aI22
aI23
aI24
aI25
aI26
aI27
aI29
aI30
aI31
aI32
aI33
aI34
aI35
aI36
aI37
aI38
asg2334
I10
sg2335
I1
sg2336
g156
sa(dp2470
g2306
F0.15342600000000001
sg2307
g95
sg2308
S'/opt/ample.git/examples/toxd-example/AMPLE_0/ensemble_workdir/cluster_1/tlevel_29/5_S_00000005_29.pdb'
p2471
sg2310
I1
sg2311
I85
sg2312
I29
sg2313
g2314
(g2316
S'x`\x00\xe1C\t\xee?'
tRp2472
sg2318
g2319
sg2320
I5
sg2321
I17
sg2322
Nsg2323
g2324
sg265
S'c1_t29_r1_polyAla'
p2473
sg2326
g192
sg2327
I13
sg2328
I12
sg2329
Nsg2330
S'/opt/ample.git/examples/toxd-example/AMPLE_0/ensemble_workdir/cluster_1/tlevel_29'
p2474
sg2332
(lp2475
I19
aI20
aI21
aI22
aI23
aI24
aI25
aI26
aI30
aI31
aI32
aI33
aI34
aI35
aI36
aI37
aI38
asg2334
I10
sg2335
I1
sg2336
g157
sa(dp2476
g2306
F0.098706000000000002
sg2307
g95
sg2308
S'/opt/ample.git/examples/toxd-example/AMPLE_0/ensemble_workdir/cluster_1/tlevel_24/5_S_00000005_24.pdb'
p2477
sg2310
I1
sg2311
I70
sg2312
I24
sg2313
g2314
(g2316
S'-Ge\x16\xe3\xb4\xe7?'
tRp2478
sg2318
g2319
sg2320
I5
sg2321
I14
sg2322
Nsg2323
g2324
sg265
S'c1_t24_r1_polyAla'
p2479
sg2326
g192
sg2327
I13
sg2328
I12
sg2329
Nsg2330
S'/opt/ample.git/examples/toxd-example/AMPLE_0/ensemble_workdir/cluster_1/tlevel_24'
p2480
sg2332
(lp2481
I20
aI21
aI22
aI23
aI24
aI25
aI26
aI31
aI32
aI33
aI34
aI35
aI36
aI37
asg2334
I10
sg2335
I1
sg2336
g158
sa(dp2482
g2306
F0.079624
sg2307
g95
sg2308
S'/opt/ample.git/examples/toxd-example/AMPLE_0/ensemble_workdir/cluster_1/tlevel_19/5_S_00000005_19.pdb'
p2483
sg2310
I1
sg2311
I55
sg2312
I19
sg2313
g2314
(g2316
S'\xda-\x13\x8f\xd5\xb7\xe4?'
tRp2484
sg2318
g2319
sg2320
I5
sg2321
I11
sg2322
Nsg2323
g2324
sg265
S'c1_t19_r1_polyAla'
p2485
sg2326
g192
sg2327
I13
sg2328
I12
sg2329
Nsg2330
S'/opt/ample.git/examples/toxd-example/AMPLE_0/ensemble_workdir/cluster_1/tlevel_19'
p2486
sg2332
(lp2487
I20
aI21
aI22
aI23
aI24
aI32
aI33
aI34
aI35
aI36
aI37
asg2334
I10
sg2335
I1
sg2336
g159
sa(dp2488
g2306
F0.068124000000000004
sg2307
g95
sg2308
S'/opt/ample.git/examples/toxd-example/AMPLE_0/ensemble_workdir/cluster_1/tlevel_14/5_S_00000005_14.pdb'
p2489
sg2310
I1
sg2311
I40
sg2312
I14
sg2313
g2314
(g2316
S'C[\x08QB\xd9\xe4?'
tRp2490
sg2318
g2319
sg2320
I5
sg2321
I8
sg2322
Nsg2323
g2324
sg265
S'c1_t14_r1_polyAla'
p2491
sg2326
g192
sg2327
I13
sg2328
I12
sg2329
Nsg2330
S'/opt/ample.git/examples/toxd-example/AMPLE_0/ensemble_workdir/cluster_1/tlevel_14'
p2492
sg2332
(lp2493
I20
aI21
aI22
aI23
aI32
aI33
aI35
aI37
asg2334
I10
sg2335
I1
sg2336
g160
sa(dp2494
g2306
F0.047035
sg2307
g95
sg2308
S'/opt/ample.git/examples/toxd-example/AMPLE_0/ensemble_workdir/cluster_1/tlevel_8/5_S_00000005_8.pdb'
p2495
sg2310
I1
sg2311
I25
sg2312
I8
sg2313
g2314
(g2316
S'4JU\xe2S\xe3\xda?'
tRp2496
sg2318
g2319
sg2320
I5
sg2321
I5
sg2322
Nsg2323
g2324
sg265
S'c1_t8_r1_polyAla'
p2497
sg2326
g192
sg2327
I13
sg2328
I12
sg2329
Nsg2330
S'/opt/ample.git/examples/toxd-example/AMPLE_0/ensemble_workdir/cluster_1/tlevel_8'
p2498
sg2332
(lp2499
I20
aI21
aI22
aI23
aI37
asg2334
I10
sg2335
I1
sg2336
g161
sasS'restraints_factor'
p2500
F1
sS'submit_cluster'
p2501
I00
sS'devel_mode'
p2502
I00
sS'frags_3mers'
p2503
NsS'fasta'
p2504
S'/opt/ample.git/examples/toxd-example/AMPLE_0/ampl_.fasta'
p2505
sS'fasta_length'
p2506
I59
sS'dry_run'
p2507
I00
sS'F'
S'FP'
p2508
sS'percent'
p2509
I5
sS'missing_domain'
p2510
I00
sS'results_path'
p2511
S'/opt/ample.git/examples/toxd-example/AMPLE_0/resultsd.pkl'
p2512
sS'max_array_jobs'
p2513
NsS'maxcluster_exe'
p2514
NsS'ccp4_version'
p2515
(I7
I0
I43
tp2516
sS'rosetta_dir'
p2517
NsS'nr'
p2518
NsS'rosetta_AbinitioRelax'
p2519
NsS'ensemble_max_models'
p2520
I30
sS'mrbump_dir'
p2521
S'/opt/ample.git/examples/toxd-example/AMPLE_0/MRBUMP'
p2522
sS'config_file'
p2523
NsS'nmr_model_in'
p2524
NsS'models'
p2525
(lp2526
S'/opt/ample.git/testfiles/models/2_S_00000003.pdb'
p2527
aS'/opt/ample.git/testfiles/models/3_S_00000001.pdb'
p2528
aS'/opt/ample.git/testfiles/models/4_S_00000003.pdb'
p2529
aS'/opt/ample.git/testfiles/models/2_S_00000005.pdb'
p2530
aS'/opt/ample.git/testfiles/models/5_S_00000002.pdb'
p2531
aS'/opt/ample.git/testfiles/models/2_S_00000001.pdb'
p2532
aS'/opt/ample.git/testfiles/models/3_S_00000006.pdb'
p2533
aS'/opt/ample.git/testfiles/models/5_S_00000001.pdb'
p2534
aS'/opt/ample.git/testfiles/models/3_S_00000002.pdb'
p2535
aS'/opt/ample.git/testfiles/models/5_S_00000003.pdb'
p2536
aS'/opt/ample.git/testfiles/models/4_S_00000006.pdb'
p2537
aS'/opt/ample.git/testfiles/models/1_S_00000003.pdb'
p2538
aS'/opt/ample.git/testfiles/models/3_S_00000005.pdb'
p2539
aS'/opt/ample.git/testfiles/models/5_S_00000005.pdb'
p2540
aS'/opt/ample.git/testfiles/models/3_S_00000003.pdb'
p2541
aS'/opt/ample.git/testfiles/models/1_S_00000004.pdb'
p2542
aS'/opt/ample.git/testfiles/models/4_S_00000005.pdb'
p2543
aS'/opt/ample.git/testfiles/models/1_S_00000006.pdb'
p2544
aS'/opt/ample.git/testfiles/models/4_S_00000004.pdb'
p2545
aS'/opt/ample.git/testfiles/models/2_S_00000002.pdb'
p2546
aS'/opt/ample.git/testfiles/models/5_S_00000006.pdb'
p2547
aS'/opt/ample.git/testfiles/models/4_S_00000001.pdb'
p2548
aS'/opt/ample.git/testfiles/models/3_S_00000004.pdb'
p2549
aS'/opt/ample.git/testfiles/models/1_S_00000002.pdb'
p2550
aS'/opt/ample.git/testfiles/models/1_S_00000001.pdb'
p2551
aS'/opt/ample.git/testfiles/models/5_S_00000004.pdb'
p2552
aS'/opt/ample.git/testfiles/models/4_S_00000002.pdb'
p2553
aS'/opt/ample.git/testfiles/models/1_S_00000005.pdb'
p2554
aS'/opt/ample.git/testfiles/models/2_S_00000006.pdb'
p2555
aS'/opt/ample.git/testfiles/models/2_S_00000004.pdb'
p2556
asS'shelx_cycles'
p2557
I15
sS'submit_num_array_jobs'
p2558
NsS'nproc'
p2559
I10
sS'shelxe_exe'
p2560
S'/opt/ccp4/ccp4-7.0/bin/shelxe'
p2561
sS'subcluster_program'
p2562
S'gesamt'
p2563
sS'distance_to_neighbour'
p2564
I5
sS'ample_version'
p2565
S'1.2.0'
p2566
sS'early_terminate'
p2567
I01
sS'LGA'
p2568
NsS'all_atom'
p2569
I01
sS'domain_all_chains_pdb'
p2570
NsS'ensembler_timeout'
p2571
I3600
sS'truncation_variances'
p2572
(lp2573
F16.134029000000002
aF6.2662509999999996
aF5.0170050000000002
aF3.2164739999999998
aF2.3163640000000001
aF1.9625710000000001
aF1.2362979999999999
aF1.078433
aF0.95564899999999997
aF0.316384
aF0.13916100000000001
aF0.106214
aF0.076881000000000005
aF0.072814000000000004
aF0.062078000000000001
aF0.054939000000000002
aF0.051957999999999997
aF0.048573999999999999
aF0.045733999999999997
asS'psipred_ss2'
p2574
Ns.